; generated by ARM C/C++ Compiler, 4.1 [Build 644]
; commandline ArmCC [--list --split_sections --debug -c --asm --interleave -o.\obj\canon_pre.o --asm_dir=.\listing\ --list_dir=.\listing\ --depend=.\obj\canon_pre.d --cpu=Cortex-M3 --apcs=interwork -O0 -I..\..\library\inc -I..\..\library\src -I..\uvsion -IC:\Keil\ARM\CMSIS\Include -IC:\Keil\ARM\INC\ST\STM32F10x -D__MICROLIB --omf_browse=.\obj\canon_pre.crf canon_pre.c]
                          THUMB

                          AREA ||i.ARC_FEED||, CODE, READONLY, ALIGN=2

                          REQUIRE _printf_pre_padding
                          REQUIRE _printf_percent
                          REQUIRE _printf_widthprec
                          REQUIRE _printf_d
                          REQUIRE _printf_int_dec
                          REQUIRE _printf_f
                          REQUIRE _printf_fp_dec
                  ARC_FEED PROC
;;;446    
;;;447    void ARC_FEED(
000000  e92d4ff0          PUSH     {r4-r11,lr}
;;;448    double first_end, double second_end,
;;;449    double first_axis, double second_axis, int rotation, double axis_end_point
;;;450    #ifdef AA
;;;451    , double a                                        /*AA*/
;;;452    #endif
;;;453    #ifdef BB
;;;454    , double b                                        /*BB*/
;;;455    #endif
;;;456    #ifdef CC
;;;457    , double c                                        /*CC*/
;;;458    #endif
;;;459    )
;;;460    {
000004  b08b              SUB      sp,sp,#0x2c
000006  4606              MOV      r6,r0
000008  460f              MOV      r7,r1
00000a  4614              MOV      r4,r2
00000c  461d              MOV      r5,r3
00000e  e9ddab14          LDRD     r10,r11,[sp,#0x50]
000012  e9dd891a          LDRD     r8,r9,[sp,#0x68]
;;;461        fprintf(_outfile, "%5d ", _line_number++);
000016  4821              LDR      r0,|L1.156|
000018  6801              LDR      r1,[r0,#0]  ; _line_number
00001a  6800              LDR      r0,[r0,#0]  ; _line_number
00001c  f1000001          ADD      r0,r0,#1
000020  4b1e              LDR      r3,|L1.156|
000022  460a              MOV      r2,r1
000024  a11e              ADR      r1,|L1.160|
000026  6018              STR      r0,[r3,#0]  ; _line_number
000028  481f              LDR      r0,|L1.168|
00002a  6800              LDR      r0,[r0,#0]  ; _outfile
00002c  f7fffffe          BL       __2fprintf
;;;462        print_nc_line_number();
000030  f7fffffe          BL       print_nc_line_number
;;;463        fprintf(_outfile, "ARC_FEED(%.4f, %.4f, %.4f, %.4f, %d, %.4f"
000034  e9cd8908          STRD     r8,r9,[sp,#0x20]
000038  9818              LDR      r0,[sp,#0x60]
00003a  9006              STR      r0,[sp,#0x18]
00003c  e9dd0116          LDRD     r0,r1,[sp,#0x58]
000040  4632              MOV      r2,r6
000042  463b              MOV      r3,r7
000044  e88d0c30          STM      sp,{r4,r5,r10,r11}
000048  e9cd0104          STRD     r0,r1,[sp,#0x10]
00004c  a117              ADR      r1,|L1.172|
00004e  4816              LDR      r0,|L1.168|
000050  6800              LDR      r0,[r0,#0]  ; _outfile
000052  f7fffffe          BL       __2fprintf
;;;464        #ifdef AA
;;;465            ", %.4f"                                  /*AA*/
;;;466        #endif
;;;467        #ifdef BB
;;;468            ", %.4f"                                  /*BB*/
;;;469        #endif
;;;470        #ifdef CC
;;;471            ", %.4f"                                  /*CC*/
;;;472        #endif
;;;473            ")\r\n", first_end, second_end, first_axis, second_axis,
;;;474            rotation, axis_end_point
;;;475        #ifdef AA
;;;476            , a                                       /*AA*/
;;;477        #endif
;;;478        #ifdef BB
;;;479            , b                                       /*BB*/
;;;480        #endif
;;;481        #ifdef CC
;;;482            , c                                       /*CC*/
;;;483        #endif
;;;484            );
;;;485        if (_active_plane IS CANON_PLANE_XY)
000056  4821              LDR      r0,|L1.220|
000058  6800              LDR      r0,[r0,#0]  ; _active_plane
00005a  2801              CMP      r0,#1
00005c  d107              BNE      |L1.110|
;;;486        {
;;;487            _program_position_x SET_TO first_end;
00005e  4820              LDR      r0,|L1.224|
000060  c0c0              STM      r0!,{r6,r7}
;;;488            _program_position_y SET_TO second_end;
000062  4820              LDR      r0,|L1.228|
000064  c030              STM      r0!,{r4,r5}
;;;489            _program_position_z SET_TO axis_end_point;
000066  4820              LDR      r0,|L1.232|
000068  e9c08900          STRD     r8,r9,[r0,#0]
00006c  e012              B        |L1.148|
                  |L1.110|
;;;490        }
;;;491        else if (_active_plane IS CANON_PLANE_YZ)
00006e  481b              LDR      r0,|L1.220|
000070  6800              LDR      r0,[r0,#0]  ; _active_plane
000072  2802              CMP      r0,#2
000074  d107              BNE      |L1.134|
;;;492        {
;;;493            _program_position_x SET_TO axis_end_point;
000076  481a              LDR      r0,|L1.224|
000078  e9c08900          STRD     r8,r9,[r0,#0]
;;;494            _program_position_y SET_TO first_end;
00007c  4819              LDR      r0,|L1.228|
00007e  c0c0              STM      r0!,{r6,r7}
;;;495            _program_position_z SET_TO second_end;
000080  4819              LDR      r0,|L1.232|
000082  c030              STM      r0!,{r4,r5}
000084  e006              B        |L1.148|
                  |L1.134|
;;;496        }
;;;497        else                                          /* if (_active_plane IS CANON_PLANE_XZ) */
;;;498        {
;;;499            _program_position_x SET_TO second_end;
000086  4816              LDR      r0,|L1.224|
000088  c030              STM      r0!,{r4,r5}
;;;500            _program_position_y SET_TO axis_end_point;
00008a  4816              LDR      r0,|L1.228|
00008c  e9c08900          STRD     r8,r9,[r0,#0]
;;;501            _program_position_z SET_TO first_end;
000090  4815              LDR      r0,|L1.232|
000092  c0c0              STM      r0!,{r6,r7}
                  |L1.148|
;;;502        }
;;;503    #ifdef AA
;;;504        _program_position_a SET_TO a;                 /*AA*/
;;;505    #endif
;;;506    #ifdef BB
;;;507        _program_position_b SET_TO b;                 /*BB*/
;;;508    #endif
;;;509    #ifdef CC
;;;510        _program_position_c SET_TO c;                 /*CC*/
;;;511    #endif
;;;512    }
000094  b00b              ADD      sp,sp,#0x2c
000096  e8bd8ff0          POP      {r4-r11,pc}
;;;513    
                          ENDP

00009a  0000              DCW      0x0000
                  |L1.156|
                          DCD      _line_number
                  |L1.160|
0000a0  25356420          DCB      "%5d ",0
0000a4  00      
0000a5  00                DCB      0
0000a6  00                DCB      0
0000a7  00                DCB      0
                  |L1.168|
                          DCD      _outfile
                  |L1.172|
0000ac  4152435f          DCB      "ARC_FEED(%.4f, %.4f, %.4f, %.4f, %d, %.4f)\r\n",0
0000b0  46454544
0000b4  28252e34
0000b8  662c2025
0000bc  2e34662c
0000c0  20252e34
0000c4  662c2025
0000c8  2e34662c
0000cc  2025642c
0000d0  20252e34
0000d4  66290d0a
0000d8  00      
0000d9  00                DCB      0
0000da  00                DCB      0
0000db  00                DCB      0
                  |L1.220|
                          DCD      _active_plane
                  |L1.224|
                          DCD      _program_position_x
                  |L1.228|
                          DCD      _program_position_y
                  |L1.232|
                          DCD      _program_position_z

                          AREA ||i.CHANGE_TOOL||, CODE, READONLY, ALIGN=2

                          REQUIRE _printf_pre_padding
                          REQUIRE _printf_percent
                          REQUIRE _printf_widthprec
                          REQUIRE _printf_d
                          REQUIRE _printf_int_dec
                  CHANGE_TOOL PROC
;;;717    
;;;718    void CHANGE_TOOL(int slot)
000000  b510              PUSH     {r4,lr}
;;;719    {
000002  4604              MOV      r4,r0
;;;720        PRINT1("CHANGE_TOOL(%d)\r\n", slot);
000004  480b              LDR      r0,|L2.52|
000006  6801              LDR      r1,[r0,#0]  ; _line_number
000008  6800              LDR      r0,[r0,#0]  ; _line_number
00000a  f1000001          ADD      r0,r0,#1
00000e  4b09              LDR      r3,|L2.52|
000010  460a              MOV      r2,r1
000012  a109              ADR      r1,|L2.56|
000014  6018              STR      r0,[r3,#0]  ; _line_number
000016  480a              LDR      r0,|L2.64|
000018  6800              LDR      r0,[r0,#0]  ; _outfile
00001a  f7fffffe          BL       __2fprintf
00001e  f7fffffe          BL       print_nc_line_number
000022  4622              MOV      r2,r4
000024  a107              ADR      r1,|L2.68|
000026  4806              LDR      r0,|L2.64|
000028  6800              LDR      r0,[r0,#0]  ; _outfile
00002a  f7fffffe          BL       __2fprintf
;;;721        _active_slot SET_TO slot;
00002e  480a              LDR      r0,|L2.88|
000030  6004              STR      r4,[r0,#0]  ; _active_slot
;;;722    }
000032  bd10              POP      {r4,pc}
;;;723    
                          ENDP

                  |L2.52|
                          DCD      _line_number
                  |L2.56|
000038  25356420          DCB      "%5d ",0
00003c  00      
00003d  00                DCB      0
00003e  00                DCB      0
00003f  00                DCB      0
                  |L2.64|
                          DCD      _outfile
                  |L2.68|
000044  4348414e          DCB      "CHANGE_TOOL(%d)\r\n",0
000048  47455f54
00004c  4f4f4c28
000050  2564290d
000054  0a00    
000056  00                DCB      0
000057  00                DCB      0
                  |L2.88|
                          DCD      _active_slot

                          AREA ||i.CLAMP_AXIS||, CODE, READONLY, ALIGN=2

                          REQUIRE _printf_pre_padding
                          REQUIRE _printf_percent
                          REQUIRE _printf_widthprec
                          REQUIRE _printf_d
                          REQUIRE _printf_int_dec
                          REQUIRE _printf_s
                          REQUIRE _printf_str
                  CLAMP_AXIS PROC
;;;728    
;;;729    void CLAMP_AXIS(CANON_AXIS axis)
000000  b510              PUSH     {r4,lr}
;;;730    {
000002  4604              MOV      r4,r0
;;;731        PRINT1("CLAMP_AXIS(%s)\r\n",
000004  4815              LDR      r0,|L3.92|
000006  6801              LDR      r1,[r0,#0]  ; _line_number
000008  6800              LDR      r0,[r0,#0]  ; _line_number
00000a  f1000001          ADD      r0,r0,#1
00000e  4b13              LDR      r3,|L3.92|
000010  460a              MOV      r2,r1
000012  a113              ADR      r1,|L3.96|
000014  6018              STR      r0,[r3,#0]  ; _line_number
000016  4814              LDR      r0,|L3.104|
000018  6800              LDR      r0,[r0,#0]  ; _outfile
00001a  f7fffffe          BL       __2fprintf
00001e  f7fffffe          BL       print_nc_line_number
000022  2c01              CMP      r4,#1
000024  d101              BNE      |L3.42|
000026  a011              ADR      r0,|L3.108|
000028  e010              B        |L3.76|
                  |L3.42|
00002a  2c02              CMP      r4,#2
00002c  d101              BNE      |L3.50|
00002e  a013              ADR      r0,|L3.124|
000030  e00c              B        |L3.76|
                  |L3.50|
000032  2c03              CMP      r4,#3
000034  d101              BNE      |L3.58|
000036  a015              ADR      r0,|L3.140|
000038  e008              B        |L3.76|
                  |L3.58|
00003a  2c04              CMP      r4,#4
00003c  d101              BNE      |L3.66|
00003e  a017              ADR      r0,|L3.156|
000040  e004              B        |L3.76|
                  |L3.66|
000042  2c06              CMP      r4,#6
000044  d101              BNE      |L3.74|
000046  a019              ADR      r0,|L3.172|
000048  e000              B        |L3.76|
                  |L3.74|
00004a  a01c              ADR      r0,|L3.188|
                  |L3.76|
00004c  4602              MOV      r2,r0
00004e  a11d              ADR      r1,|L3.196|
000050  4805              LDR      r0,|L3.104|
000052  6800              LDR      r0,[r0,#0]  ; _outfile
000054  f7fffffe          BL       __2fprintf
;;;732            (axis IS CANON_AXIS_X) ? "CANON_AXIS_X" :
;;;733        (axis IS CANON_AXIS_Y) ? "CANON_AXIS_Y" :
;;;734        (axis IS CANON_AXIS_Z) ? "CANON_AXIS_Z" :
;;;735        (axis IS CANON_AXIS_A) ? "CANON_AXIS_A" :
;;;736        (axis IS CANON_AXIS_C) ? "CANON_AXIS_C" : "UNKNOWN");
;;;737    }
000058  bd10              POP      {r4,pc}
;;;738    
                          ENDP

00005a  0000              DCW      0x0000
                  |L3.92|
                          DCD      _line_number
                  |L3.96|
000060  25356420          DCB      "%5d ",0
000064  00      
000065  00                DCB      0
000066  00                DCB      0
000067  00                DCB      0
                  |L3.104|
                          DCD      _outfile
                  |L3.108|
00006c  43414e4f          DCB      "CANON_AXIS_X",0
000070  4e5f4158
000074  49535f58
000078  00      
000079  00                DCB      0
00007a  00                DCB      0
00007b  00                DCB      0
                  |L3.124|
00007c  43414e4f          DCB      "CANON_AXIS_Y",0
000080  4e5f4158
000084  49535f59
000088  00      
000089  00                DCB      0
00008a  00                DCB      0
00008b  00                DCB      0
                  |L3.140|
00008c  43414e4f          DCB      "CANON_AXIS_Z",0
000090  4e5f4158
000094  49535f5a
000098  00      
000099  00                DCB      0
00009a  00                DCB      0
00009b  00                DCB      0
                  |L3.156|
00009c  43414e4f          DCB      "CANON_AXIS_A",0
0000a0  4e5f4158
0000a4  49535f41
0000a8  00      
0000a9  00                DCB      0
0000aa  00                DCB      0
0000ab  00                DCB      0
                  |L3.172|
0000ac  43414e4f          DCB      "CANON_AXIS_C",0
0000b0  4e5f4158
0000b4  49535f43
0000b8  00      
0000b9  00                DCB      0
0000ba  00                DCB      0
0000bb  00                DCB      0
                  |L3.188|
0000bc  554e4b4e          DCB      "UNKNOWN",0
0000c0  4f574e00
                  |L3.196|
0000c4  434c414d          DCB      "CLAMP_AXIS(%s)\r\n",0
0000c8  505f4158
0000cc  49532825
0000d0  73290d0a
0000d4  00      
0000d5  00                DCB      0
0000d6  00                DCB      0
0000d7  00                DCB      0

                          AREA ||i.COMMENT||, CODE, READONLY, ALIGN=2

                          REQUIRE _printf_pre_padding
                          REQUIRE _printf_percent
                          REQUIRE _printf_widthprec
                          REQUIRE _printf_d
                          REQUIRE _printf_int_dec
                          REQUIRE _printf_s
                          REQUIRE _printf_str
                  COMMENT PROC
;;;739    
;;;740    void COMMENT(char *s)
000000  b510              PUSH     {r4,lr}
;;;741    {PRINT1("COMMENT(\"%s\")\r\n", s);}
000002  4604              MOV      r4,r0
000004  480a              LDR      r0,|L4.48|
000006  6801              LDR      r1,[r0,#0]  ; _line_number
000008  6800              LDR      r0,[r0,#0]  ; _line_number
00000a  f1000001          ADD      r0,r0,#1
00000e  4b08              LDR      r3,|L4.48|
000010  460a              MOV      r2,r1
000012  a108              ADR      r1,|L4.52|
000014  6018              STR      r0,[r3,#0]  ; _line_number
000016  4809              LDR      r0,|L4.60|
000018  6800              LDR      r0,[r0,#0]  ; _outfile
00001a  f7fffffe          BL       __2fprintf
00001e  f7fffffe          BL       print_nc_line_number
000022  4622              MOV      r2,r4
000024  a106              ADR      r1,|L4.64|
000026  4805              LDR      r0,|L4.60|
000028  6800              LDR      r0,[r0,#0]  ; _outfile
00002a  f7fffffe          BL       __2fprintf
00002e  bd10              POP      {r4,pc}
;;;742    
                          ENDP

                  |L4.48|
                          DCD      _line_number
                  |L4.52|
000034  25356420          DCB      "%5d ",0
000038  00      
000039  00                DCB      0
00003a  00                DCB      0
00003b  00                DCB      0
                  |L4.60|
                          DCD      _outfile
                  |L4.64|
000040  434f4d4d          DCB      "COMMENT(""%s"")\r\n",0
000044  454e5428
000048  22257322
00004c  290d0a00

                          AREA ||i.DISABLE_FEED_OVERRIDE||, CODE, READONLY, ALIGN=2

                          REQUIRE _printf_pre_padding
                          REQUIRE _printf_percent
                          REQUIRE _printf_widthprec
                          REQUIRE _printf_d
                          REQUIRE _printf_int_dec
                  DISABLE_FEED_OVERRIDE PROC
;;;742    
;;;743    void DISABLE_FEED_OVERRIDE()
000000  b510              PUSH     {r4,lr}
;;;744    {PRINT0("DISABLE_FEED_OVERRIDE()\r\n");}
000002  480a              LDR      r0,|L5.44|
000004  6801              LDR      r1,[r0,#0]  ; _line_number
000006  6800              LDR      r0,[r0,#0]  ; _line_number
000008  1c40              ADDS     r0,r0,#1
00000a  4b08              LDR      r3,|L5.44|
00000c  460a              MOV      r2,r1
00000e  a108              ADR      r1,|L5.48|
000010  6018              STR      r0,[r3,#0]  ; _line_number
000012  4809              LDR      r0,|L5.56|
000014  6800              LDR      r0,[r0,#0]  ; _outfile
000016  f7fffffe          BL       __2fprintf
00001a  f7fffffe          BL       print_nc_line_number
00001e  a107              ADR      r1,|L5.60|
000020  4805              LDR      r0,|L5.56|
000022  6800              LDR      r0,[r0,#0]  ; _outfile
000024  f7fffffe          BL       __2fprintf
000028  bd10              POP      {r4,pc}
;;;745    
                          ENDP

00002a  0000              DCW      0x0000
                  |L5.44|
                          DCD      _line_number
                  |L5.48|
000030  25356420          DCB      "%5d ",0
000034  00      
000035  00                DCB      0
000036  00                DCB      0
000037  00                DCB      0
                  |L5.56|
                          DCD      _outfile
                  |L5.60|
00003c  44495341          DCB      "DISABLE_FEED_OVERRIDE()\r\n",0
000040  424c455f
000044  46454544
000048  5f4f5645
00004c  52524944
000050  4528290d
000054  0a00    
000056  00                DCB      0
000057  00                DCB      0

                          AREA ||i.DISABLE_SPEED_OVERRIDE||, CODE, READONLY, ALIGN=2

                          REQUIRE _printf_pre_padding
                          REQUIRE _printf_percent
                          REQUIRE _printf_widthprec
                          REQUIRE _printf_d
                          REQUIRE _printf_int_dec
                  DISABLE_SPEED_OVERRIDE PROC
;;;745    
;;;746    void DISABLE_SPEED_OVERRIDE()
000000  b510              PUSH     {r4,lr}
;;;747    {PRINT0("DISABLE_SPEED_OVERRIDE()\r\n");}
000002  480a              LDR      r0,|L6.44|
000004  6801              LDR      r1,[r0,#0]  ; _line_number
000006  6800              LDR      r0,[r0,#0]  ; _line_number
000008  1c40              ADDS     r0,r0,#1
00000a  4b08              LDR      r3,|L6.44|
00000c  460a              MOV      r2,r1
00000e  a108              ADR      r1,|L6.48|
000010  6018              STR      r0,[r3,#0]  ; _line_number
000012  4809              LDR      r0,|L6.56|
000014  6800              LDR      r0,[r0,#0]  ; _outfile
000016  f7fffffe          BL       __2fprintf
00001a  f7fffffe          BL       print_nc_line_number
00001e  a107              ADR      r1,|L6.60|
000020  4805              LDR      r0,|L6.56|
000022  6800              LDR      r0,[r0,#0]  ; _outfile
000024  f7fffffe          BL       __2fprintf
000028  bd10              POP      {r4,pc}
;;;748    
                          ENDP

00002a  0000              DCW      0x0000
                  |L6.44|
                          DCD      _line_number
                  |L6.48|
000030  25356420          DCB      "%5d ",0
000034  00      
000035  00                DCB      0
000036  00                DCB      0
000037  00                DCB      0
                  |L6.56|
                          DCD      _outfile
                  |L6.60|
00003c  44495341          DCB      "DISABLE_SPEED_OVERRIDE()\r\n",0
000040  424c455f
000044  53504545
000048  445f4f56
00004c  45525249
000050  44452829
000054  0d0a00  
000057  00                DCB      0

                          AREA ||i.DWELL||, CODE, READONLY, ALIGN=2

                          REQUIRE _printf_pre_padding
                          REQUIRE _printf_percent
                          REQUIRE _printf_widthprec
                          REQUIRE _printf_d
                          REQUIRE _printf_int_dec
                          REQUIRE _printf_f
                          REQUIRE _printf_fp_dec
                  DWELL PROC
;;;661    
;;;662    void DWELL(double seconds)
000000  b570              PUSH     {r4-r6,lr}
;;;663    {PRINT1("DWELL(%.4f)\r\n", seconds);}
000002  4604              MOV      r4,r0
000004  460d              MOV      r5,r1
000006  480b              LDR      r0,|L7.52|
000008  6801              LDR      r1,[r0,#0]  ; _line_number
00000a  6800              LDR      r0,[r0,#0]  ; _line_number
00000c  f1000001          ADD      r0,r0,#1
000010  4b08              LDR      r3,|L7.52|
000012  460a              MOV      r2,r1
000014  a108              ADR      r1,|L7.56|
000016  6018              STR      r0,[r3,#0]  ; _line_number
000018  4809              LDR      r0,|L7.64|
00001a  6800              LDR      r0,[r0,#0]  ; _outfile
00001c  f7fffffe          BL       __2fprintf
000020  f7fffffe          BL       print_nc_line_number
000024  4622              MOV      r2,r4
000026  462b              MOV      r3,r5
000028  a106              ADR      r1,|L7.68|
00002a  4805              LDR      r0,|L7.64|
00002c  6800              LDR      r0,[r0,#0]  ; _outfile
00002e  f7fffffe          BL       __2fprintf
000032  bd70              POP      {r4-r6,pc}
;;;664    
                          ENDP

                  |L7.52|
                          DCD      _line_number
                  |L7.56|
000038  25356420          DCB      "%5d ",0
00003c  00      
00003d  00                DCB      0
00003e  00                DCB      0
00003f  00                DCB      0
                  |L7.64|
                          DCD      _outfile
                  |L7.68|
000044  4457454c          DCB      "DWELL(%.4f)\r\n",0
000048  4c28252e
00004c  3466290d
000050  0a00    
000052  00                DCB      0
000053  00                DCB      0

                          AREA ||i.ENABLE_FEED_OVERRIDE||, CODE, READONLY, ALIGN=2

                          REQUIRE _printf_pre_padding
                          REQUIRE _printf_percent
                          REQUIRE _printf_widthprec
                          REQUIRE _printf_d
                          REQUIRE _printf_int_dec
                  ENABLE_FEED_OVERRIDE PROC
;;;748    
;;;749    void ENABLE_FEED_OVERRIDE()
000000  b510              PUSH     {r4,lr}
;;;750    {PRINT0("ENABLE_FEED_OVERRIDE()\r\n");}
000002  480a              LDR      r0,|L8.44|
000004  6801              LDR      r1,[r0,#0]  ; _line_number
000006  6800              LDR      r0,[r0,#0]  ; _line_number
000008  1c40              ADDS     r0,r0,#1
00000a  4b08              LDR      r3,|L8.44|
00000c  460a              MOV      r2,r1
00000e  a108              ADR      r1,|L8.48|
000010  6018              STR      r0,[r3,#0]  ; _line_number
000012  4809              LDR      r0,|L8.56|
000014  6800              LDR      r0,[r0,#0]  ; _outfile
000016  f7fffffe          BL       __2fprintf
00001a  f7fffffe          BL       print_nc_line_number
00001e  a107              ADR      r1,|L8.60|
000020  4805              LDR      r0,|L8.56|
000022  6800              LDR      r0,[r0,#0]  ; _outfile
000024  f7fffffe          BL       __2fprintf
000028  bd10              POP      {r4,pc}
;;;751    
                          ENDP

00002a  0000              DCW      0x0000
                  |L8.44|
                          DCD      _line_number
                  |L8.48|
000030  25356420          DCB      "%5d ",0
000034  00      
000035  00                DCB      0
000036  00                DCB      0
000037  00                DCB      0
                  |L8.56|
                          DCD      _outfile
                  |L8.60|
00003c  454e4142          DCB      "ENABLE_FEED_OVERRIDE()\r\n",0
000040  4c455f46
000044  4545445f
000048  4f564552
00004c  52494445
000050  28290d0a
000054  00      
000055  00                DCB      0
000056  00                DCB      0
000057  00                DCB      0

                          AREA ||i.ENABLE_SPEED_OVERRIDE||, CODE, READONLY, ALIGN=2

                          REQUIRE _printf_pre_padding
                          REQUIRE _printf_percent
                          REQUIRE _printf_widthprec
                          REQUIRE _printf_d
                          REQUIRE _printf_int_dec
                  ENABLE_SPEED_OVERRIDE PROC
;;;751    
;;;752    void ENABLE_SPEED_OVERRIDE()
000000  b510              PUSH     {r4,lr}
;;;753    {PRINT0("ENABLE_SPEED_OVERRIDE()\r\n");}
000002  480a              LDR      r0,|L9.44|
000004  6801              LDR      r1,[r0,#0]  ; _line_number
000006  6800              LDR      r0,[r0,#0]  ; _line_number
000008  1c40              ADDS     r0,r0,#1
00000a  4b08              LDR      r3,|L9.44|
00000c  460a              MOV      r2,r1
00000e  a108              ADR      r1,|L9.48|
000010  6018              STR      r0,[r3,#0]  ; _line_number
000012  4809              LDR      r0,|L9.56|
000014  6800              LDR      r0,[r0,#0]  ; _outfile
000016  f7fffffe          BL       __2fprintf
00001a  f7fffffe          BL       print_nc_line_number
00001e  a107              ADR      r1,|L9.60|
000020  4805              LDR      r0,|L9.56|
000022  6800              LDR      r0,[r0,#0]  ; _outfile
000024  f7fffffe          BL       __2fprintf
000028  bd10              POP      {r4,pc}
;;;754    
                          ENDP

00002a  0000              DCW      0x0000
                  |L9.44|
                          DCD      _line_number
                  |L9.48|
000030  25356420          DCB      "%5d ",0
000034  00      
000035  00                DCB      0
000036  00                DCB      0
000037  00                DCB      0
                  |L9.56|
                          DCD      _outfile
                  |L9.60|
00003c  454e4142          DCB      "ENABLE_SPEED_OVERRIDE()\r\n",0
000040  4c455f53
000044  50454544
000048  5f4f5645
00004c  52524944
000050  4528290d
000054  0a00    
000056  00                DCB      0
000057  00                DCB      0

                          AREA ||i.FLOOD_OFF||, CODE, READONLY, ALIGN=2

                          REQUIRE _printf_pre_padding
                          REQUIRE _printf_percent
                          REQUIRE _printf_widthprec
                          REQUIRE _printf_d
                          REQUIRE _printf_int_dec
                  FLOOD_OFF PROC
;;;754    
;;;755    void FLOOD_OFF()
000000  b510              PUSH     {r4,lr}
;;;756    {
;;;757        PRINT0("FLOOD_OFF()\r\n");
000002  480c              LDR      r0,|L10.52|
000004  6801              LDR      r1,[r0,#0]  ; _line_number
000006  6800              LDR      r0,[r0,#0]  ; _line_number
000008  1c40              ADDS     r0,r0,#1
00000a  4b0a              LDR      r3,|L10.52|
00000c  460a              MOV      r2,r1
00000e  a10a              ADR      r1,|L10.56|
000010  6018              STR      r0,[r3,#0]  ; _line_number
000012  480b              LDR      r0,|L10.64|
000014  6800              LDR      r0,[r0,#0]  ; _outfile
000016  f7fffffe          BL       __2fprintf
00001a  f7fffffe          BL       print_nc_line_number
00001e  a109              ADR      r1,|L10.68|
000020  4807              LDR      r0,|L10.64|
000022  6800              LDR      r0,[r0,#0]  ; _outfile
000024  f7fffffe          BL       __2fprintf
;;;758        _flood SET_TO 0;
000028  f04f0000          MOV      r0,#0
00002c  4909              LDR      r1,|L10.84|
00002e  6008              STR      r0,[r1,#0]  ; _flood
;;;759    }
000030  bd10              POP      {r4,pc}
;;;760    
                          ENDP

000032  0000              DCW      0x0000
                  |L10.52|
                          DCD      _line_number
                  |L10.56|
000038  25356420          DCB      "%5d ",0
00003c  00      
00003d  00                DCB      0
00003e  00                DCB      0
00003f  00                DCB      0
                  |L10.64|
                          DCD      _outfile
                  |L10.68|
000044  464c4f4f          DCB      "FLOOD_OFF()\r\n",0
000048  445f4f46
00004c  4628290d
000050  0a00    
000052  00                DCB      0
000053  00                DCB      0
                  |L10.84|
                          DCD      _flood

                          AREA ||i.FLOOD_ON||, CODE, READONLY, ALIGN=2

                          REQUIRE _printf_pre_padding
                          REQUIRE _printf_percent
                          REQUIRE _printf_widthprec
                          REQUIRE _printf_d
                          REQUIRE _printf_int_dec
                  FLOOD_ON PROC
;;;761    
;;;762    void FLOOD_ON()
000000  b510              PUSH     {r4,lr}
;;;763    {
;;;764        PRINT0("FLOOD_ON()\r\n");
000002  480c              LDR      r0,|L11.52|
000004  6801              LDR      r1,[r0,#0]  ; _line_number
000006  6800              LDR      r0,[r0,#0]  ; _line_number
000008  1c40              ADDS     r0,r0,#1
00000a  4b0a              LDR      r3,|L11.52|
00000c  460a              MOV      r2,r1
00000e  a10a              ADR      r1,|L11.56|
000010  6018              STR      r0,[r3,#0]  ; _line_number
000012  480b              LDR      r0,|L11.64|
000014  6800              LDR      r0,[r0,#0]  ; _outfile
000016  f7fffffe          BL       __2fprintf
00001a  f7fffffe          BL       print_nc_line_number
00001e  a109              ADR      r1,|L11.68|
000020  4807              LDR      r0,|L11.64|
000022  6800              LDR      r0,[r0,#0]  ; _outfile
000024  f7fffffe          BL       __2fprintf
;;;765        _flood SET_TO 1;
000028  f04f0001          MOV      r0,#1
00002c  4909              LDR      r1,|L11.84|
00002e  6008              STR      r0,[r1,#0]  ; _flood
;;;766    }
000030  bd10              POP      {r4,pc}
;;;767    
                          ENDP

000032  0000              DCW      0x0000
                  |L11.52|
                          DCD      _line_number
                  |L11.56|
000038  25356420          DCB      "%5d ",0
00003c  00      
00003d  00                DCB      0
00003e  00                DCB      0
00003f  00                DCB      0
                  |L11.64|
                          DCD      _outfile
                  |L11.68|
000044  464c4f4f          DCB      "FLOOD_ON()\r\n",0
000048  445f4f4e
00004c  28290d0a
000050  00      
000051  00                DCB      0
000052  00                DCB      0
000053  00                DCB      0
                  |L11.84|
                          DCD      _flood

                          AREA ||i.GET_EXTERNAL_FEED_RATE||, CODE, READONLY, ALIGN=2

                  GET_EXTERNAL_FEED_RATE PROC
;;;842       /* Returns the system feed rate */
;;;843    double GET_EXTERNAL_FEED_RATE()
000000  4901              LDR      r1,|L12.8|
;;;844    {
;;;845        return _feed_rate;
000002  c903              LDM      r1,{r0,r1}
;;;846    }
000004  4770              BX       lr
;;;847    
                          ENDP

000006  0000              DCW      0x0000
                  |L12.8|
                          DCD      _feed_rate

                          AREA ||i.GET_EXTERNAL_FLOOD||, CODE, READONLY, ALIGN=2

                  GET_EXTERNAL_FLOOD PROC
;;;849       /* Returns the system flood coolant setting zero = off, non-zero = on */
;;;850    int GET_EXTERNAL_FLOOD()
000000  4801              LDR      r0,|L13.8|
;;;851    {
;;;852        return _flood;
000002  6800              LDR      r0,[r0,#0]  ; _flood
;;;853    }
000004  4770              BX       lr
;;;854    
                          ENDP

000006  0000              DCW      0x0000
                  |L13.8|
                          DCD      _flood

                          AREA ||i.GET_EXTERNAL_LENGTH_UNIT_FACTOR||, CODE, READONLY, ALIGN=2

                  GET_EXTERNAL_LENGTH_UNIT_FACTOR PROC
;;;856       /* Returns the system length unit factor, in units per mm */
;;;857    extern double GET_EXTERNAL_LENGTH_UNIT_FACTOR()
000000  b510              PUSH     {r4,lr}
;;;858    {
;;;859        return 1/_length_unit_factor;
000002  4803              LDR      r0,|L14.16|
000004  c80c              LDM      r0!,{r2,r3}
000006  2000              MOVS     r0,#0
000008  4902              LDR      r1,|L14.20|
00000a  f7fffffe          BL       __aeabi_ddiv
;;;860    }
00000e  bd10              POP      {r4,pc}
;;;861    
                          ENDP

                  |L14.16|
                          DCD      _length_unit_factor
                  |L14.20|
                          DCD      0x3ff00000

                          AREA ||i.GET_EXTERNAL_LENGTH_UNIT_TYPE||, CODE, READONLY, ALIGN=2

                  GET_EXTERNAL_LENGTH_UNIT_TYPE PROC
;;;863       /* Returns the system length unit type */
;;;864    CANON_UNITS GET_EXTERNAL_LENGTH_UNIT_TYPE()
000000  4801              LDR      r0,|L15.8|
;;;865    {
;;;866        return _length_unit_type;
000002  6800              LDR      r0,[r0,#0]  ; _length_unit_type
;;;867    }
000004  4770              BX       lr
;;;868    
                          ENDP

000006  0000              DCW      0x0000
                  |L15.8|
                          DCD      _length_unit_type

                          AREA ||i.GET_EXTERNAL_MIST||, CODE, READONLY, ALIGN=2

                  GET_EXTERNAL_MIST PROC
;;;870       /* Returns the system mist coolant setting zero = off, non-zero = on */
;;;871    extern int GET_EXTERNAL_MIST()
000000  4801              LDR      r0,|L16.8|
;;;872    {
;;;873        return _mist;
000002  6800              LDR      r0,[r0,#0]  ; _mist
;;;874    }
000004  4770              BX       lr
;;;875    
                          ENDP

000006  0000              DCW      0x0000
                  |L16.8|
                          DCD      _mist

                          AREA ||i.GET_EXTERNAL_MOTION_CONTROL_MODE||, CODE, READONLY, ALIGN=2

                  GET_EXTERNAL_MOTION_CONTROL_MODE PROC
;;;877       // Returns the current motion control mode
;;;878    extern CANON_MOTION_MODE GET_EXTERNAL_MOTION_CONTROL_MODE()
000000  4801              LDR      r0,|L17.8|
;;;879    {
;;;880        return _motion_mode;
000002  6800              LDR      r0,[r0,#0]  ; _motion_mode
;;;881    }
000004  4770              BX       lr
;;;882    
                          ENDP

000006  0000              DCW      0x0000
                  |L17.8|
                          DCD      _motion_mode

                          AREA ||i.GET_EXTERNAL_PARAMETER_FILE_NAME||, CODE, READONLY, ALIGN=2

                  GET_EXTERNAL_PARAMETER_FILE_NAME PROC
;;;929    
;;;930    void GET_EXTERNAL_PARAMETER_FILE_NAME(
000000  b570              PUSH     {r4-r6,lr}
;;;931    char * file_name,                                 /* string: to copy file name into       */
;;;932    unsigned int max_size)                                     /* maximum number of characters to copy */
;;;933    {
000002  4604              MOV      r4,r0
000004  460d              MOV      r5,r1
;;;934        if (strlen(_parameter_file_name) < max_size)
000006  4807              LDR      r0,|L18.36|
000008  f7fffffe          BL       strlen
00000c  42a8              CMP      r0,r5
00000e  d204              BCS      |L18.26|
;;;935            strcpy(file_name, _parameter_file_name);
000010  4904              LDR      r1,|L18.36|
000012  4620              MOV      r0,r4
000014  f7fffffe          BL       strcpy
000018  e002              B        |L18.32|
                  |L18.26|
;;;936        else
;;;937            file_name[0] SET_TO 0;
00001a  f04f0000          MOV      r0,#0
00001e  7020              STRB     r0,[r4,#0]
                  |L18.32|
;;;938    }
000020  bd70              POP      {r4-r6,pc}
;;;939    
                          ENDP

000022  0000              DCW      0x0000
                  |L18.36|
                          DCD      _parameter_file_name

                          AREA ||i.GET_EXTERNAL_PLANE||, CODE, READONLY, ALIGN=2

                  GET_EXTERNAL_PLANE PROC
;;;940    
;;;941    CANON_PLANE GET_EXTERNAL_PLANE()
000000  4801              LDR      r0,|L19.8|
;;;942    {
;;;943        return _active_plane;
000002  6800              LDR      r0,[r0,#0]  ; _active_plane
;;;944    }
000004  4770              BX       lr
;;;945    
                          ENDP

000006  0000              DCW      0x0000
                  |L19.8|
                          DCD      _active_plane

                          AREA ||i.GET_EXTERNAL_POSITION_X||, CODE, READONLY, ALIGN=2

                  GET_EXTERNAL_POSITION_X PROC
;;;971       /* returns the current x-axis position */
;;;972    double GET_EXTERNAL_POSITION_X()
000000  4901              LDR      r1,|L20.8|
;;;973    {
;;;974        return _program_position_x;
000002  c903              LDM      r1,{r0,r1}
;;;975    }
000004  4770              BX       lr
;;;976    
                          ENDP

000006  0000              DCW      0x0000
                  |L20.8|
                          DCD      _program_position_x

                          AREA ||i.GET_EXTERNAL_POSITION_Y||, CODE, READONLY, ALIGN=2

                  GET_EXTERNAL_POSITION_Y PROC
;;;978       /* returns the current y-axis position */
;;;979    double GET_EXTERNAL_POSITION_Y()
000000  4901              LDR      r1,|L21.8|
;;;980    {
;;;981        return _program_position_y;
000002  c903              LDM      r1,{r0,r1}
;;;982    }
000004  4770              BX       lr
;;;983    
                          ENDP

000006  0000              DCW      0x0000
                  |L21.8|
                          DCD      _program_position_y

                          AREA ||i.GET_EXTERNAL_POSITION_Z||, CODE, READONLY, ALIGN=2

                  GET_EXTERNAL_POSITION_Z PROC
;;;985       /* returns the current z-axis position */
;;;986    double GET_EXTERNAL_POSITION_Z()
000000  4901              LDR      r1,|L22.8|
;;;987    {
;;;988        return _program_position_z;
000002  c903              LDM      r1,{r0,r1}
;;;989    }
000004  4770              BX       lr
;;;990    
                          ENDP

000006  0000              DCW      0x0000
                  |L22.8|
                          DCD      _program_position_z

                          AREA ||i.GET_EXTERNAL_PROBE_POSITION_X||, CODE, READONLY, ALIGN=2

                  GET_EXTERNAL_PROBE_POSITION_X PROC
;;;1020         once the probe command has executed to completion. */
;;;1021   double GET_EXTERNAL_PROBE_POSITION_X()
000000  4901              LDR      r1,|L23.8|
;;;1022   {
;;;1023       return _probe_position_x;
000002  c903              LDM      r1,{r0,r1}
;;;1024   }
000004  4770              BX       lr
;;;1025   
                          ENDP

000006  0000              DCW      0x0000
                  |L23.8|
                          DCD      _probe_position_x

                          AREA ||i.GET_EXTERNAL_PROBE_POSITION_Y||, CODE, READONLY, ALIGN=2

                  GET_EXTERNAL_PROBE_POSITION_Y PROC
;;;1028         once the probe command has executed to completion. */
;;;1029   double GET_EXTERNAL_PROBE_POSITION_Y()
000000  4901              LDR      r1,|L24.8|
;;;1030   {
;;;1031       return _probe_position_y;
000002  c903              LDM      r1,{r0,r1}
;;;1032   }
000004  4770              BX       lr
;;;1033   
                          ENDP

000006  0000              DCW      0x0000
                  |L24.8|
                          DCD      _probe_position_y

                          AREA ||i.GET_EXTERNAL_PROBE_POSITION_Z||, CODE, READONLY, ALIGN=2

                  GET_EXTERNAL_PROBE_POSITION_Z PROC
;;;1036         once the probe command has executed to completion. */
;;;1037   double GET_EXTERNAL_PROBE_POSITION_Z()
000000  4901              LDR      r1,|L25.8|
;;;1038   {
;;;1039       return _probe_position_z;
000002  c903              LDM      r1,{r0,r1}
;;;1040   }
000004  4770              BX       lr
;;;1041   
                          ENDP

000006  0000              DCW      0x0000
                  |L25.8|
                          DCD      _probe_position_z

                          AREA ||i.GET_EXTERNAL_PROBE_VALUE||, CODE, READONLY, ALIGN=2

                  GET_EXTERNAL_PROBE_VALUE PROC
;;;1045      /* It is not expected this will ever be called. */
;;;1046   extern double GET_EXTERNAL_PROBE_VALUE()
000000  2000              MOVS     r0,#0
;;;1047   {
;;;1048       return 1.0;
000002  4901              LDR      r1,|L26.8|
;;;1049   }
000004  4770              BX       lr
;;;1050   
                          ENDP

000006  0000              DCW      0x0000
                  |L26.8|
                          DCD      0x3ff00000

                          AREA ||i.GET_EXTERNAL_QUEUE_EMPTY||, CODE, READONLY, ALIGN=1

                  GET_EXTERNAL_QUEUE_EMPTY PROC
;;;1053      /* In the stand-alone interpreter, there is no queue, so it is always empty */
;;;1054   extern int GET_EXTERNAL_QUEUE_EMPTY()
000000  2001              MOVS     r0,#1
;;;1055   {
;;;1056       return 1;
;;;1057   }
000002  4770              BX       lr
;;;1058   
                          ENDP


                          AREA ||i.GET_EXTERNAL_SPEED||, CODE, READONLY, ALIGN=2

                  GET_EXTERNAL_SPEED PROC
;;;1060      /* Returns the system value for spindle speed in rpm */
;;;1061   double GET_EXTERNAL_SPEED()
000000  4901              LDR      r1,|L28.8|
;;;1062   {
;;;1063       return _spindle_speed;
000002  c903              LDM      r1,{r0,r1}
;;;1064   }
000004  4770              BX       lr
;;;1065   
                          ENDP

000006  0000              DCW      0x0000
                  |L28.8|
                          DCD      _spindle_speed

                          AREA ||i.GET_EXTERNAL_SPINDLE||, CODE, READONLY, ALIGN=2

                  GET_EXTERNAL_SPINDLE PROC
;;;1067      /* Returns the system value for direction of spindle turning */
;;;1068   extern CANON_DIRECTION GET_EXTERNAL_SPINDLE()
000000  4801              LDR      r0,|L29.8|
;;;1069   {
;;;1070       return _spindle_turning;
000002  6800              LDR      r0,[r0,#0]  ; _spindle_turning
;;;1071   }
000004  4770              BX       lr
;;;1072   
                          ENDP

000006  0000              DCW      0x0000
                  |L29.8|
                          DCD      _spindle_turning

                          AREA ||i.GET_EXTERNAL_TOOL_MAX||, CODE, READONLY, ALIGN=2

                  GET_EXTERNAL_TOOL_MAX PROC
;;;1083      /* Returns maximum number of tools */
;;;1084   int GET_EXTERNAL_TOOL_MAX()
000000  4801              LDR      r0,|L30.8|
;;;1085   {
;;;1086       return _tool_max;
000002  6800              LDR      r0,[r0,#0]  ; _tool_max
;;;1087   }
000004  4770              BX       lr
;;;1088   
                          ENDP

000006  0000              DCW      0x0000
                  |L30.8|
                          DCD      _tool_max

                          AREA ||i.GET_EXTERNAL_TOOL_SLOT||, CODE, READONLY, ALIGN=2

                  GET_EXTERNAL_TOOL_SLOT PROC
;;;1076      tool in the spindle. */
;;;1077   extern int GET_EXTERNAL_TOOL_SLOT()
000000  4801              LDR      r0,|L31.8|
;;;1078   {
;;;1079       return _active_slot;
000002  6800              LDR      r0,[r0,#0]  ; _active_slot
;;;1080   }
000004  4770              BX       lr
;;;1081   
                          ENDP

000006  0000              DCW      0x0000
                  |L31.8|
                          DCD      _active_slot

                          AREA ||i.GET_EXTERNAL_TOOL_TABLE||, CODE, READONLY, ALIGN=2

                  GET_EXTERNAL_TOOL_TABLE PROC
;;;1091         in the given pocket */
;;;1092   extern CANON_TOOL_TABLE GET_EXTERNAL_TOOL_TABLE(int pocket)
000000  b570              PUSH     {r4-r6,lr}
;;;1093   {
000002  4605              MOV      r5,r0
000004  460c              MOV      r4,r1
;;;1094       return _tools[pocket];
000006  eb040044          ADD      r0,r4,r4,LSL #1
00000a  4a05              LDR      r2,|L32.32|
00000c  eb0200c0          ADD      r0,r2,r0,LSL #3
000010  4601              MOV      r1,r0
000012  f04f0218          MOV      r2,#0x18
000016  4628              MOV      r0,r5
000018  f7fffffe          BL       __aeabi_memcpy4
;;;1095   }
00001c  bd70              POP      {r4-r6,pc}
;;;1096   
                          ENDP

00001e  0000              DCW      0x0000
                  |L32.32|
                          DCD      _tools

                          AREA ||i.GET_EXTERNAL_TRAVERSE_RATE||, CODE, READONLY, ALIGN=2

                  GET_EXTERNAL_TRAVERSE_RATE PROC
;;;1098      /* Returns the system traverse rate */
;;;1099   double GET_EXTERNAL_TRAVERSE_RATE()
000000  4901              LDR      r1,|L33.8|
;;;1100   {
;;;1101       return _traverse_rate;
000002  c903              LDM      r1,{r0,r1}
;;;1102   }
000004  4770              BX       lr
                          ENDP

000006  0000              DCW      0x0000
                  |L33.8|
                          DCD      _traverse_rate

                          AREA ||i.INIT_CANON||, CODE, READONLY, ALIGN=1

                  INIT_CANON PROC
;;;768    
;;;769    void INIT_CANON()
000000  4770              BX       lr
;;;770    {
;;;771    }
;;;772    
                          ENDP


                          AREA ||i.MESSAGE||, CODE, READONLY, ALIGN=2

                          REQUIRE _printf_pre_padding
                          REQUIRE _printf_percent
                          REQUIRE _printf_widthprec
                          REQUIRE _printf_d
                          REQUIRE _printf_int_dec
                          REQUIRE _printf_s
                          REQUIRE _printf_str
                  MESSAGE PROC
;;;773    
;;;774    void MESSAGE(char *s)
000000  b510              PUSH     {r4,lr}
;;;775    {PRINT1("MESSAGE(\"%s\")\r\n", s);}
000002  4604              MOV      r4,r0
000004  480a              LDR      r0,|L35.48|
000006  6801              LDR      r1,[r0,#0]  ; _line_number
000008  6800              LDR      r0,[r0,#0]  ; _line_number
00000a  f1000001          ADD      r0,r0,#1
00000e  4b08              LDR      r3,|L35.48|
000010  460a              MOV      r2,r1
000012  a108              ADR      r1,|L35.52|
000014  6018              STR      r0,[r3,#0]  ; _line_number
000016  4809              LDR      r0,|L35.60|
000018  6800              LDR      r0,[r0,#0]  ; _outfile
00001a  f7fffffe          BL       __2fprintf
00001e  f7fffffe          BL       print_nc_line_number
000022  4622              MOV      r2,r4
000024  a106              ADR      r1,|L35.64|
000026  4805              LDR      r0,|L35.60|
000028  6800              LDR      r0,[r0,#0]  ; _outfile
00002a  f7fffffe          BL       __2fprintf
00002e  bd10              POP      {r4,pc}
;;;776    
                          ENDP

                  |L35.48|
                          DCD      _line_number
                  |L35.52|
000034  25356420          DCB      "%5d ",0
000038  00      
000039  00                DCB      0
00003a  00                DCB      0
00003b  00                DCB      0
                  |L35.60|
                          DCD      _outfile
                  |L35.64|
000040  4d455353          DCB      "MESSAGE(""%s"")\r\n",0
000044  41474528
000048  22257322
00004c  290d0a00

                          AREA ||i.MIST_OFF||, CODE, READONLY, ALIGN=2

                          REQUIRE _printf_pre_padding
                          REQUIRE _printf_percent
                          REQUIRE _printf_widthprec
                          REQUIRE _printf_d
                          REQUIRE _printf_int_dec
                  MIST_OFF PROC
;;;776    
;;;777    void MIST_OFF()
000000  b510              PUSH     {r4,lr}
;;;778    {
;;;779        PRINT0("MIST_OFF()\r\n");
000002  480c              LDR      r0,|L36.52|
000004  6801              LDR      r1,[r0,#0]  ; _line_number
000006  6800              LDR      r0,[r0,#0]  ; _line_number
000008  1c40              ADDS     r0,r0,#1
00000a  4b0a              LDR      r3,|L36.52|
00000c  460a              MOV      r2,r1
00000e  a10a              ADR      r1,|L36.56|
000010  6018              STR      r0,[r3,#0]  ; _line_number
000012  480b              LDR      r0,|L36.64|
000014  6800              LDR      r0,[r0,#0]  ; _outfile
000016  f7fffffe          BL       __2fprintf
00001a  f7fffffe          BL       print_nc_line_number
00001e  a109              ADR      r1,|L36.68|
000020  4807              LDR      r0,|L36.64|
000022  6800              LDR      r0,[r0,#0]  ; _outfile
000024  f7fffffe          BL       __2fprintf
;;;780        _mist SET_TO 0;
000028  f04f0000          MOV      r0,#0
00002c  4909              LDR      r1,|L36.84|
00002e  6008              STR      r0,[r1,#0]  ; _mist
;;;781    }
000030  bd10              POP      {r4,pc}
;;;782    
                          ENDP

000032  0000              DCW      0x0000
                  |L36.52|
                          DCD      _line_number
                  |L36.56|
000038  25356420          DCB      "%5d ",0
00003c  00      
00003d  00                DCB      0
00003e  00                DCB      0
00003f  00                DCB      0
                  |L36.64|
                          DCD      _outfile
                  |L36.68|
000044  4d495354          DCB      "MIST_OFF()\r\n",0
000048  5f4f4646
00004c  28290d0a
000050  00      
000051  00                DCB      0
000052  00                DCB      0
000053  00                DCB      0
                  |L36.84|
                          DCD      _mist

                          AREA ||i.MIST_ON||, CODE, READONLY, ALIGN=2

                          REQUIRE _printf_pre_padding
                          REQUIRE _printf_percent
                          REQUIRE _printf_widthprec
                          REQUIRE _printf_d
                          REQUIRE _printf_int_dec
                  MIST_ON PROC
;;;783    
;;;784    void MIST_ON()
000000  b510              PUSH     {r4,lr}
;;;785    {
;;;786        PRINT0("MIST_ON()\r\n");
000002  480c              LDR      r0,|L37.52|
000004  6801              LDR      r1,[r0,#0]  ; _line_number
000006  6800              LDR      r0,[r0,#0]  ; _line_number
000008  1c40              ADDS     r0,r0,#1
00000a  4b0a              LDR      r3,|L37.52|
00000c  460a              MOV      r2,r1
00000e  a10a              ADR      r1,|L37.56|
000010  6018              STR      r0,[r3,#0]  ; _line_number
000012  480b              LDR      r0,|L37.64|
000014  6800              LDR      r0,[r0,#0]  ; _outfile
000016  f7fffffe          BL       __2fprintf
00001a  f7fffffe          BL       print_nc_line_number
00001e  a109              ADR      r1,|L37.68|
000020  4807              LDR      r0,|L37.64|
000022  6800              LDR      r0,[r0,#0]  ; _outfile
000024  f7fffffe          BL       __2fprintf
;;;787        _mist SET_TO 1;
000028  f04f0001          MOV      r0,#1
00002c  4908              LDR      r1,|L37.80|
00002e  6008              STR      r0,[r1,#0]  ; _mist
;;;788    }
000030  bd10              POP      {r4,pc}
;;;789    
                          ENDP

000032  0000              DCW      0x0000
                  |L37.52|
                          DCD      _line_number
                  |L37.56|
000038  25356420          DCB      "%5d ",0
00003c  00      
00003d  00                DCB      0
00003e  00                DCB      0
00003f  00                DCB      0
                  |L37.64|
                          DCD      _outfile
                  |L37.68|
000044  4d495354          DCB      "MIST_ON()\r\n",0
000048  5f4f4e28
00004c  290d0a00
                  |L37.80|
                          DCD      _mist

                          AREA ||i.OPTIONAL_PROGRAM_STOP||, CODE, READONLY, ALIGN=2

                          REQUIRE _printf_pre_padding
                          REQUIRE _printf_percent
                          REQUIRE _printf_widthprec
                          REQUIRE _printf_d
                          REQUIRE _printf_int_dec
                  OPTIONAL_PROGRAM_STOP PROC
;;;816    
;;;817    void OPTIONAL_PROGRAM_STOP()
000000  b510              PUSH     {r4,lr}
;;;818    {PRINT0("OPTIONAL_PROGRAM_STOP()\r\n");}
000002  480a              LDR      r0,|L38.44|
000004  6801              LDR      r1,[r0,#0]  ; _line_number
000006  6800              LDR      r0,[r0,#0]  ; _line_number
000008  1c40              ADDS     r0,r0,#1
00000a  4b08              LDR      r3,|L38.44|
00000c  460a              MOV      r2,r1
00000e  a108              ADR      r1,|L38.48|
000010  6018              STR      r0,[r3,#0]  ; _line_number
000012  4809              LDR      r0,|L38.56|
000014  6800              LDR      r0,[r0,#0]  ; _outfile
000016  f7fffffe          BL       __2fprintf
00001a  f7fffffe          BL       print_nc_line_number
00001e  a107              ADR      r1,|L38.60|
000020  4805              LDR      r0,|L38.56|
000022  6800              LDR      r0,[r0,#0]  ; _outfile
000024  f7fffffe          BL       __2fprintf
000028  bd10              POP      {r4,pc}
;;;819    
                          ENDP

00002a  0000              DCW      0x0000
                  |L38.44|
                          DCD      _line_number
                  |L38.48|
000030  25356420          DCB      "%5d ",0
000034  00      
000035  00                DCB      0
000036  00                DCB      0
000037  00                DCB      0
                  |L38.56|
                          DCD      _outfile
                  |L38.60|
00003c  4f505449          DCB      "OPTIONAL_PROGRAM_STOP()\r\n",0
000040  4f4e414c
000044  5f50524f
000048  4752414d
00004c  5f53544f
000050  5028290d
000054  0a00    
000056  00                DCB      0
000057  00                DCB      0

                          AREA ||i.ORIENT_SPINDLE||, CODE, READONLY, ALIGN=2

                          REQUIRE _printf_pre_padding
                          REQUIRE _printf_percent
                          REQUIRE _printf_widthprec
                          REQUIRE _printf_d
                          REQUIRE _printf_int_dec
                          REQUIRE _printf_f
                          REQUIRE _printf_s
                          REQUIRE _printf_fp_dec
                          REQUIRE _printf_str
                  ORIENT_SPINDLE PROC
;;;701    
;;;702    void ORIENT_SPINDLE(double orientation, CANON_DIRECTION direction)
000000  b5f8              PUSH     {r3-r7,lr}
;;;703    {
000002  4604              MOV      r4,r0
000004  460d              MOV      r5,r1
000006  4616              MOV      r6,r2
;;;704        PRINT2("ORIENT_SPINDLE(%.4f, %s)\r\n", orientation,
000008  480e              LDR      r0,|L39.68|
00000a  6801              LDR      r1,[r0,#0]  ; _line_number
00000c  6800              LDR      r0,[r0,#0]  ; _line_number
00000e  f1000001          ADD      r0,r0,#1
000012  4b0c              LDR      r3,|L39.68|
000014  460a              MOV      r2,r1
000016  a10c              ADR      r1,|L39.72|
000018  6018              STR      r0,[r3,#0]  ; _line_number
00001a  480d              LDR      r0,|L39.80|
00001c  6800              LDR      r0,[r0,#0]  ; _outfile
00001e  f7fffffe          BL       __2fprintf
000022  f7fffffe          BL       print_nc_line_number
000026  2e02              CMP      r6,#2
000028  d101              BNE      |L39.46|
00002a  a00a              ADR      r0,|L39.84|
00002c  e000              B        |L39.48|
                  |L39.46|
00002e  a00d              ADR      r0,|L39.100|
                  |L39.48|
000030  4622              MOV      r2,r4
000032  462b              MOV      r3,r5
000034  a111              ADR      r1,|L39.124|
000036  9000              STR      r0,[sp,#0]
000038  4805              LDR      r0,|L39.80|
00003a  6800              LDR      r0,[r0,#0]  ; _outfile
00003c  f7fffffe          BL       __2fprintf
;;;705            (direction IS CANON_CLOCKWISE) ? "CANON_CLOCKWISE" :
;;;706        "CANON_COUNTERCLOCKWISE");
;;;707    }
000040  bdf8              POP      {r3-r7,pc}
;;;708    
                          ENDP

000042  0000              DCW      0x0000
                  |L39.68|
                          DCD      _line_number
                  |L39.72|
000048  25356420          DCB      "%5d ",0
00004c  00      
00004d  00                DCB      0
00004e  00                DCB      0
00004f  00                DCB      0
                  |L39.80|
                          DCD      _outfile
                  |L39.84|
000054  43414e4f          DCB      "CANON_CLOCKWISE",0
000058  4e5f434c
00005c  4f434b57
000060  49534500
                  |L39.100|
000064  43414e4f          DCB      "CANON_COUNTERCLOCKWISE",0
000068  4e5f434f
00006c  554e5445
000070  52434c4f
000074  434b5749
000078  534500  
00007b  00                DCB      0
                  |L39.124|
00007c  4f524945          DCB      "ORIENT_SPINDLE(%.4f, %s)\r\n",0
000080  4e545f53
000084  50494e44
000088  4c452825
00008c  2e34662c
000090  20257329
000094  0d0a00  
000097  00                DCB      0

                          AREA ||i.PALLET_SHUTTLE||, CODE, READONLY, ALIGN=2

                          REQUIRE _printf_pre_padding
                          REQUIRE _printf_percent
                          REQUIRE _printf_widthprec
                          REQUIRE _printf_d
                          REQUIRE _printf_int_dec
                  PALLET_SHUTTLE PROC
;;;790    
;;;791    void PALLET_SHUTTLE()
000000  b510              PUSH     {r4,lr}
;;;792    {PRINT0("PALLET_SHUTTLE()\r\n");}
000002  480a              LDR      r0,|L40.44|
000004  6801              LDR      r1,[r0,#0]  ; _line_number
000006  6800              LDR      r0,[r0,#0]  ; _line_number
000008  1c40              ADDS     r0,r0,#1
00000a  4b08              LDR      r3,|L40.44|
00000c  460a              MOV      r2,r1
00000e  a108              ADR      r1,|L40.48|
000010  6018              STR      r0,[r3,#0]  ; _line_number
000012  4809              LDR      r0,|L40.56|
000014  6800              LDR      r0,[r0,#0]  ; _outfile
000016  f7fffffe          BL       __2fprintf
00001a  f7fffffe          BL       print_nc_line_number
00001e  a107              ADR      r1,|L40.60|
000020  4805              LDR      r0,|L40.56|
000022  6800              LDR      r0,[r0,#0]  ; _outfile
000024  f7fffffe          BL       __2fprintf
000028  bd10              POP      {r4,pc}
;;;793    
                          ENDP

00002a  0000              DCW      0x0000
                  |L40.44|
                          DCD      _line_number
                  |L40.48|
000030  25356420          DCB      "%5d ",0
000034  00      
000035  00                DCB      0
000036  00                DCB      0
000037  00                DCB      0
                  |L40.56|
                          DCD      _outfile
                  |L40.60|
00003c  50414c4c          DCB      "PALLET_SHUTTLE()\r\n",0
000040  45545f53
000044  48555454
000048  4c452829
00004c  0d0a00  
00004f  00                DCB      0

                          AREA ||i.PROGRAM_END||, CODE, READONLY, ALIGN=2

                          REQUIRE _printf_pre_padding
                          REQUIRE _printf_percent
                          REQUIRE _printf_widthprec
                          REQUIRE _printf_d
                          REQUIRE _printf_int_dec
                  PROGRAM_END PROC
;;;819    
;;;820    void PROGRAM_END()
000000  b510              PUSH     {r4,lr}
;;;821    {PRINT0("PROGRAM_END()\r\n");}
000002  480a              LDR      r0,|L41.44|
000004  6801              LDR      r1,[r0,#0]  ; _line_number
000006  6800              LDR      r0,[r0,#0]  ; _line_number
000008  1c40              ADDS     r0,r0,#1
00000a  4b08              LDR      r3,|L41.44|
00000c  460a              MOV      r2,r1
00000e  a108              ADR      r1,|L41.48|
000010  6018              STR      r0,[r3,#0]  ; _line_number
000012  4809              LDR      r0,|L41.56|
000014  6800              LDR      r0,[r0,#0]  ; _outfile
000016  f7fffffe          BL       __2fprintf
00001a  f7fffffe          BL       print_nc_line_number
00001e  a107              ADR      r1,|L41.60|
000020  4805              LDR      r0,|L41.56|
000022  6800              LDR      r0,[r0,#0]  ; _outfile
000024  f7fffffe          BL       __2fprintf
000028  bd10              POP      {r4,pc}
;;;822    
                          ENDP

00002a  0000              DCW      0x0000
                  |L41.44|
                          DCD      _line_number
                  |L41.48|
000030  25356420          DCB      "%5d ",0
000034  00      
000035  00                DCB      0
000036  00                DCB      0
000037  00                DCB      0
                  |L41.56|
                          DCD      _outfile
                  |L41.60|
00003c  50524f47          DCB      "PROGRAM_END()\r\n",0
000040  52414d5f
000044  454e4428
000048  290d0a00

                          AREA ||i.PROGRAM_STOP||, CODE, READONLY, ALIGN=2

                          REQUIRE _printf_pre_padding
                          REQUIRE _printf_percent
                          REQUIRE _printf_widthprec
                          REQUIRE _printf_d
                          REQUIRE _printf_int_dec
                  PROGRAM_STOP PROC
;;;813    
;;;814    void PROGRAM_STOP()
000000  b510              PUSH     {r4,lr}
;;;815    {PRINT0("PROGRAM_STOP()\r\n");}
000002  480a              LDR      r0,|L42.44|
000004  6801              LDR      r1,[r0,#0]  ; _line_number
000006  6800              LDR      r0,[r0,#0]  ; _line_number
000008  1c40              ADDS     r0,r0,#1
00000a  4b08              LDR      r3,|L42.44|
00000c  460a              MOV      r2,r1
00000e  a108              ADR      r1,|L42.48|
000010  6018              STR      r0,[r3,#0]  ; _line_number
000012  4809              LDR      r0,|L42.56|
000014  6800              LDR      r0,[r0,#0]  ; _outfile
000016  f7fffffe          BL       __2fprintf
00001a  f7fffffe          BL       print_nc_line_number
00001e  a107              ADR      r1,|L42.60|
000020  4805              LDR      r0,|L42.56|
000022  6800              LDR      r0,[r0,#0]  ; _outfile
000024  f7fffffe          BL       __2fprintf
000028  bd10              POP      {r4,pc}
;;;816    
                          ENDP

00002a  0000              DCW      0x0000
                  |L42.44|
                          DCD      _line_number
                  |L42.48|
000030  25356420          DCB      "%5d ",0
000034  00      
000035  00                DCB      0
000036  00                DCB      0
000037  00                DCB      0
                  |L42.56|
                          DCD      _outfile
                  |L42.60|
00003c  50524f47          DCB      "PROGRAM_STOP()\r\n",0
000040  52414d5f
000044  53544f50
000048  28290d0a
00004c  00      
00004d  00                DCB      0
00004e  00                DCB      0
00004f  00                DCB      0

                          AREA ||i.SELECT_PLANE||, CODE, READONLY, ALIGN=2

                          REQUIRE _printf_pre_padding
                          REQUIRE _printf_percent
                          REQUIRE _printf_widthprec
                          REQUIRE _printf_d
                          REQUIRE _printf_int_dec
                          REQUIRE _printf_s
                          REQUIRE _printf_str
                  SELECT_PLANE PROC
;;;414    
;;;415    void SELECT_PLANE(CANON_PLANE in_plane)
000000  b510              PUSH     {r4,lr}
;;;416    {
000002  4604              MOV      r4,r0
;;;417        PRINT1("SELECT_PLANE(CANON_PLANE_%s)\r\n",
000004  4812              LDR      r0,|L43.80|
000006  6801              LDR      r1,[r0,#0]  ; _line_number
000008  6800              LDR      r0,[r0,#0]  ; _line_number
00000a  f1000001          ADD      r0,r0,#1
00000e  4b10              LDR      r3,|L43.80|
000010  460a              MOV      r2,r1
000012  a110              ADR      r1,|L43.84|
000014  6018              STR      r0,[r3,#0]  ; _line_number
000016  4811              LDR      r0,|L43.92|
000018  6800              LDR      r0,[r0,#0]  ; _outfile
00001a  f7fffffe          BL       __2fprintf
00001e  f7fffffe          BL       print_nc_line_number
000022  2c01              CMP      r4,#1
000024  d101              BNE      |L43.42|
000026  a00e              ADR      r0,|L43.96|
000028  e008              B        |L43.60|
                  |L43.42|
00002a  2c02              CMP      r4,#2
00002c  d101              BNE      |L43.50|
00002e  a00d              ADR      r0,|L43.100|
000030  e004              B        |L43.60|
                  |L43.50|
000032  2c03              CMP      r4,#3
000034  d101              BNE      |L43.58|
000036  a00c              ADR      r0,|L43.104|
000038  e000              B        |L43.60|
                  |L43.58|
00003a  a00c              ADR      r0,|L43.108|
                  |L43.60|
00003c  4602              MOV      r2,r0
00003e  a10d              ADR      r1,|L43.116|
000040  4806              LDR      r0,|L43.92|
000042  6800              LDR      r0,[r0,#0]  ; _outfile
000044  f7fffffe          BL       __2fprintf
;;;418            ((in_plane IS CANON_PLANE_XY) ? "XY" :
;;;419        (in_plane IS CANON_PLANE_YZ) ? "YZ" :
;;;420        (in_plane IS CANON_PLANE_XZ) ? "XZ" : "UNKNOWN"));
;;;421        _active_plane SET_TO in_plane;
000048  4812              LDR      r0,|L43.148|
00004a  6004              STR      r4,[r0,#0]  ; _active_plane
;;;422    }
00004c  bd10              POP      {r4,pc}
;;;423    
                          ENDP

00004e  0000              DCW      0x0000
                  |L43.80|
                          DCD      _line_number
                  |L43.84|
000054  25356420          DCB      "%5d ",0
000058  00      
000059  00                DCB      0
00005a  00                DCB      0
00005b  00                DCB      0
                  |L43.92|
                          DCD      _outfile
                  |L43.96|
000060  585900            DCB      "XY",0
000063  00                DCB      0
                  |L43.100|
000064  595a00            DCB      "YZ",0
000067  00                DCB      0
                  |L43.104|
000068  585a00            DCB      "XZ",0
00006b  00                DCB      0
                  |L43.108|
00006c  554e4b4e          DCB      "UNKNOWN",0
000070  4f574e00
                  |L43.116|
000074  53454c45          DCB      "SELECT_PLANE(CANON_PLANE_%s)\r\n",0
000078  43545f50
00007c  4c414e45
000080  2843414e
000084  4f4e5f50
000088  4c414e45
00008c  5f257329
000090  0d0a00  
000093  00                DCB      0
                  |L43.148|
                          DCD      _active_plane

                          AREA ||i.SELECT_TOOL||, CODE, READONLY, ALIGN=2

                          REQUIRE _printf_pre_padding
                          REQUIRE _printf_percent
                          REQUIRE _printf_widthprec
                          REQUIRE _printf_d
                          REQUIRE _printf_int_dec
                  SELECT_TOOL PROC
;;;723    
;;;724    void SELECT_TOOL(int slot)
000000  b510              PUSH     {r4,lr}
;;;725    {PRINT1("SELECT_TOOL(%d)\r\n", slot);}
000002  4604              MOV      r4,r0
000004  480a              LDR      r0,|L44.48|
000006  6801              LDR      r1,[r0,#0]  ; _line_number
000008  6800              LDR      r0,[r0,#0]  ; _line_number
00000a  f1000001          ADD      r0,r0,#1
00000e  4b08              LDR      r3,|L44.48|
000010  460a              MOV      r2,r1
000012  a108              ADR      r1,|L44.52|
000014  6018              STR      r0,[r3,#0]  ; _line_number
000016  4809              LDR      r0,|L44.60|
000018  6800              LDR      r0,[r0,#0]  ; _outfile
00001a  f7fffffe          BL       __2fprintf
00001e  f7fffffe          BL       print_nc_line_number
000022  4622              MOV      r2,r4
000024  a106              ADR      r1,|L44.64|
000026  4805              LDR      r0,|L44.60|
000028  6800              LDR      r0,[r0,#0]  ; _outfile
00002a  f7fffffe          BL       __2fprintf
00002e  bd10              POP      {r4,pc}
;;;726    
                          ENDP

                  |L44.48|
                          DCD      _line_number
                  |L44.52|
000034  25356420          DCB      "%5d ",0
000038  00      
000039  00                DCB      0
00003a  00                DCB      0
00003b  00                DCB      0
                  |L44.60|
                          DCD      _outfile
                  |L44.64|
000040  53454c45          DCB      "SELECT_TOOL(%d)\r\n",0
000044  43545f54
000048  4f4f4c28
00004c  2564290d
000050  0a00    
000052  00                DCB      0
000053  00                DCB      0

                          AREA ||i.SET_CUTTER_RADIUS_COMPENSATION||, CODE, READONLY, ALIGN=2

                          REQUIRE _printf_pre_padding
                          REQUIRE _printf_percent
                          REQUIRE _printf_widthprec
                          REQUIRE _printf_d
                          REQUIRE _printf_int_dec
                          REQUIRE _printf_f
                          REQUIRE _printf_fp_dec
                  SET_CUTTER_RADIUS_COMPENSATION PROC
;;;424    
;;;425    void SET_CUTTER_RADIUS_COMPENSATION(double radius)
000000  b570              PUSH     {r4-r6,lr}
;;;426    {PRINT1("SET_CUTTER_RADIUS_COMPENSATION(%.4f)\r\n", radius);}
000002  4604              MOV      r4,r0
000004  460d              MOV      r5,r1
000006  480b              LDR      r0,|L45.52|
000008  6801              LDR      r1,[r0,#0]  ; _line_number
00000a  6800              LDR      r0,[r0,#0]  ; _line_number
00000c  f1000001          ADD      r0,r0,#1
000010  4b08              LDR      r3,|L45.52|
000012  460a              MOV      r2,r1
000014  a108              ADR      r1,|L45.56|
000016  6018              STR      r0,[r3,#0]  ; _line_number
000018  4809              LDR      r0,|L45.64|
00001a  6800              LDR      r0,[r0,#0]  ; _outfile
00001c  f7fffffe          BL       __2fprintf
000020  f7fffffe          BL       print_nc_line_number
000024  4622              MOV      r2,r4
000026  462b              MOV      r3,r5
000028  a106              ADR      r1,|L45.68|
00002a  4805              LDR      r0,|L45.64|
00002c  6800              LDR      r0,[r0,#0]  ; _outfile
00002e  f7fffffe          BL       __2fprintf
000032  bd70              POP      {r4-r6,pc}
;;;427    
                          ENDP

                  |L45.52|
                          DCD      _line_number
                  |L45.56|
000038  25356420          DCB      "%5d ",0
00003c  00      
00003d  00                DCB      0
00003e  00                DCB      0
00003f  00                DCB      0
                  |L45.64|
                          DCD      _outfile
                  |L45.68|
000044  5345545f          DCB      "SET_CUTTER_RADIUS_COMPENSATION(%.4f)\r\n",0
000048  43555454
00004c  45525f52
000050  41444955
000054  535f434f
000058  4d50454e
00005c  53415449
000060  4f4e2825
000064  2e346629
000068  0d0a00  
00006b  00                DCB      0

                          AREA ||i.SET_FEED_RATE||, CODE, READONLY, ALIGN=2

                          REQUIRE _printf_pre_padding
                          REQUIRE _printf_percent
                          REQUIRE _printf_widthprec
                          REQUIRE _printf_d
                          REQUIRE _printf_int_dec
                          REQUIRE _printf_f
                          REQUIRE _printf_fp_dec
                  SET_FEED_RATE PROC
;;;378       /* Machining Attributes */
;;;379    void SET_FEED_RATE(double rate)
000000  b570              PUSH     {r4-r6,lr}
;;;380    {
000002  4604              MOV      r4,r0
000004  460d              MOV      r5,r1
;;;381        PRINT1("SET_FEED_RATE(%.4f)\r\n", rate);
000006  480c              LDR      r0,|L46.56|
000008  6801              LDR      r1,[r0,#0]  ; _line_number
00000a  6800              LDR      r0,[r0,#0]  ; _line_number
00000c  f1000001          ADD      r0,r0,#1
000010  4b09              LDR      r3,|L46.56|
000012  460a              MOV      r2,r1
000014  a109              ADR      r1,|L46.60|
000016  6018              STR      r0,[r3,#0]  ; _line_number
000018  480a              LDR      r0,|L46.68|
00001a  6800              LDR      r0,[r0,#0]  ; _outfile
00001c  f7fffffe          BL       __2fprintf
000020  f7fffffe          BL       print_nc_line_number
000024  4622              MOV      r2,r4
000026  462b              MOV      r3,r5
000028  a107              ADR      r1,|L46.72|
00002a  4806              LDR      r0,|L46.68|
00002c  6800              LDR      r0,[r0,#0]  ; _outfile
00002e  f7fffffe          BL       __2fprintf
;;;382        _feed_rate SET_TO rate;
000032  480b              LDR      r0,|L46.96|
000034  c030              STM      r0!,{r4,r5}
;;;383    }
000036  bd70              POP      {r4-r6,pc}
;;;384    
                          ENDP

                  |L46.56|
                          DCD      _line_number
                  |L46.60|
00003c  25356420          DCB      "%5d ",0
000040  00      
000041  00                DCB      0
000042  00                DCB      0
000043  00                DCB      0
                  |L46.68|
                          DCD      _outfile
                  |L46.72|
000048  5345545f          DCB      "SET_FEED_RATE(%.4f)\r\n",0
00004c  46454544
000050  5f524154
000054  4528252e
000058  3466290d
00005c  0a00    
00005e  00                DCB      0
00005f  00                DCB      0
                  |L46.96|
                          DCD      _feed_rate

                          AREA ||i.SET_FEED_REFERENCE||, CODE, READONLY, ALIGN=2

                          REQUIRE _printf_pre_padding
                          REQUIRE _printf_percent
                          REQUIRE _printf_widthprec
                          REQUIRE _printf_d
                          REQUIRE _printf_int_dec
                          REQUIRE _printf_s
                          REQUIRE _printf_str
                  SET_FEED_REFERENCE PROC
;;;385    
;;;386    void SET_FEED_REFERENCE(CANON_FEED_REFERENCE reference)
000000  b510              PUSH     {r4,lr}
;;;387    {
000002  4604              MOV      r4,r0
;;;388        PRINT1("SET_FEED_REFERENCE(%s)\r\n",
000004  480d              LDR      r0,|L47.60|
000006  6801              LDR      r1,[r0,#0]  ; _line_number
000008  6800              LDR      r0,[r0,#0]  ; _line_number
00000a  f1000001          ADD      r0,r0,#1
00000e  4b0b              LDR      r3,|L47.60|
000010  460a              MOV      r2,r1
000012  a10b              ADR      r1,|L47.64|
000014  6018              STR      r0,[r3,#0]  ; _line_number
000016  480c              LDR      r0,|L47.72|
000018  6800              LDR      r0,[r0,#0]  ; _outfile
00001a  f7fffffe          BL       __2fprintf
00001e  f7fffffe          BL       print_nc_line_number
000022  2c01              CMP      r4,#1
000024  d101              BNE      |L47.42|
000026  a009              ADR      r0,|L47.76|
000028  e000              B        |L47.44|
                  |L47.42|
00002a  a00c              ADR      r0,|L47.92|
                  |L47.44|
00002c  4602              MOV      r2,r0
00002e  a10e              ADR      r1,|L47.104|
000030  4805              LDR      r0,|L47.72|
000032  6800              LDR      r0,[r0,#0]  ; _outfile
000034  f7fffffe          BL       __2fprintf
;;;389            (reference IS CANON_WORKPIECE) ? "CANON_WORKPIECE" : "CANON_XYZ");
;;;390    }
000038  bd10              POP      {r4,pc}
;;;391    
                          ENDP

00003a  0000              DCW      0x0000
                  |L47.60|
                          DCD      _line_number
                  |L47.64|
000040  25356420          DCB      "%5d ",0
000044  00      
000045  00                DCB      0
000046  00                DCB      0
000047  00                DCB      0
                  |L47.72|
                          DCD      _outfile
                  |L47.76|
00004c  43414e4f          DCB      "CANON_WORKPIECE",0
000050  4e5f574f
000054  524b5049
000058  45434500
                  |L47.92|
00005c  43414e4f          DCB      "CANON_XYZ",0
000060  4e5f5859
000064  5a00    
000066  00                DCB      0
000067  00                DCB      0
                  |L47.104|
000068  5345545f          DCB      "SET_FEED_REFERENCE(%s)\r\n",0
00006c  46454544
000070  5f524546
000074  4552454e
000078  43452825
00007c  73290d0a
000080  00      
000081  00                DCB      0
000082  00                DCB      0
000083  00                DCB      0

                          AREA ||i.SET_MOTION_CONTROL_MODE||, CODE, READONLY, ALIGN=2

                          REQUIRE _printf_pre_padding
                          REQUIRE _printf_percent
                          REQUIRE _printf_widthprec
                          REQUIRE _printf_d
                          REQUIRE _printf_int_dec
                  SET_MOTION_CONTROL_MODE PROC
;;;392    
;;;393    extern void SET_MOTION_CONTROL_MODE(CANON_MOTION_MODE mode)
000000  b510              PUSH     {r4,lr}
;;;394    {
000002  4604              MOV      r4,r0
;;;395        if (mode IS CANON_EXACT_STOP)
000004  2c01              CMP      r4,#1
000006  d116              BNE      |L48.54|
;;;396        {
;;;397            PRINT0("SET_MOTION_CONTROL_MODE(CANON_EXACT_STOP)\r\n");
000008  482e              LDR      r0,|L48.196|
00000a  6801              LDR      r1,[r0,#0]  ; _line_number
00000c  6800              LDR      r0,[r0,#0]  ; _line_number
00000e  1c40              ADDS     r0,r0,#1
000010  4b2c              LDR      r3,|L48.196|
000012  460a              MOV      r2,r1
000014  a12c              ADR      r1,|L48.200|
000016  6018              STR      r0,[r3,#0]  ; _line_number
000018  482d              LDR      r0,|L48.208|
00001a  6800              LDR      r0,[r0,#0]  ; _outfile
00001c  f7fffffe          BL       __2fprintf
000020  f7fffffe          BL       print_nc_line_number
000024  a12b              ADR      r1,|L48.212|
000026  482a              LDR      r0,|L48.208|
000028  6800              LDR      r0,[r0,#0]  ; _outfile
00002a  f7fffffe          BL       __2fprintf
;;;398            _motion_mode SET_TO CANON_EXACT_STOP;
00002e  4620              MOV      r0,r4
000030  4933              LDR      r1,|L48.256|
000032  6008              STR      r0,[r1,#0]  ; _motion_mode
000034  e044              B        |L48.192|
                  |L48.54|
;;;399        }
;;;400        else if (mode IS CANON_EXACT_PATH)
000036  2c02              CMP      r4,#2
000038  d116              BNE      |L48.104|
;;;401        {
;;;402            PRINT0("SET_MOTION_CONTROL_MODE(CANON_EXACT_PATH)\r\n");
00003a  4822              LDR      r0,|L48.196|
00003c  6801              LDR      r1,[r0,#0]  ; _line_number
00003e  6800              LDR      r0,[r0,#0]  ; _line_number
000040  1c40              ADDS     r0,r0,#1
000042  4b20              LDR      r3,|L48.196|
000044  460a              MOV      r2,r1
000046  a120              ADR      r1,|L48.200|
000048  6018              STR      r0,[r3,#0]  ; _line_number
00004a  4821              LDR      r0,|L48.208|
00004c  6800              LDR      r0,[r0,#0]  ; _outfile
00004e  f7fffffe          BL       __2fprintf
000052  f7fffffe          BL       print_nc_line_number
000056  a12b              ADR      r1,|L48.260|
000058  481d              LDR      r0,|L48.208|
00005a  6800              LDR      r0,[r0,#0]  ; _outfile
00005c  f7fffffe          BL       __2fprintf
;;;403            _motion_mode SET_TO CANON_EXACT_PATH;
000060  4620              MOV      r0,r4
000062  4927              LDR      r1,|L48.256|
000064  6008              STR      r0,[r1,#0]  ; _motion_mode
000066  e02b              B        |L48.192|
                  |L48.104|
;;;404        }
;;;405        else if (mode IS CANON_CONTINUOUS)
000068  2c03              CMP      r4,#3
00006a  d116              BNE      |L48.154|
;;;406        {
;;;407            PRINT0("SET_MOTION_CONTROL_MODE(CANON_CONTINUOUS)\r\n");
00006c  4815              LDR      r0,|L48.196|
00006e  6801              LDR      r1,[r0,#0]  ; _line_number
000070  6800              LDR      r0,[r0,#0]  ; _line_number
000072  1c40              ADDS     r0,r0,#1
000074  4b13              LDR      r3,|L48.196|
000076  460a              MOV      r2,r1
000078  a113              ADR      r1,|L48.200|
00007a  6018              STR      r0,[r3,#0]  ; _line_number
00007c  4814              LDR      r0,|L48.208|
00007e  6800              LDR      r0,[r0,#0]  ; _outfile
000080  f7fffffe          BL       __2fprintf
000084  f7fffffe          BL       print_nc_line_number
000088  a129              ADR      r1,|L48.304|
00008a  4811              LDR      r0,|L48.208|
00008c  6800              LDR      r0,[r0,#0]  ; _outfile
00008e  f7fffffe          BL       __2fprintf
;;;408            _motion_mode SET_TO CANON_CONTINUOUS;
000092  4620              MOV      r0,r4
000094  491a              LDR      r1,|L48.256|
000096  6008              STR      r0,[r1,#0]  ; _motion_mode
000098  e012              B        |L48.192|
                  |L48.154|
;;;409        }
;;;410        else
;;;411            PRINT0("SET_MOTION_CONTROL_MODE(UNKNOWN)\r\n");
00009a  480a              LDR      r0,|L48.196|
00009c  6801              LDR      r1,[r0,#0]  ; _line_number
00009e  6800              LDR      r0,[r0,#0]  ; _line_number
0000a0  1c40              ADDS     r0,r0,#1
0000a2  4b08              LDR      r3,|L48.196|
0000a4  460a              MOV      r2,r1
0000a6  a108              ADR      r1,|L48.200|
0000a8  6018              STR      r0,[r3,#0]  ; _line_number
0000aa  4809              LDR      r0,|L48.208|
0000ac  6800              LDR      r0,[r0,#0]  ; _outfile
0000ae  f7fffffe          BL       __2fprintf
0000b2  f7fffffe          BL       print_nc_line_number
0000b6  a129              ADR      r1,|L48.348|
0000b8  4805              LDR      r0,|L48.208|
0000ba  6800              LDR      r0,[r0,#0]  ; _outfile
0000bc  f7fffffe          BL       __2fprintf
                  |L48.192|
;;;412    }
0000c0  bd10              POP      {r4,pc}
;;;413    
                          ENDP

0000c2  0000              DCW      0x0000
                  |L48.196|
                          DCD      _line_number
                  |L48.200|
0000c8  25356420          DCB      "%5d ",0
0000cc  00      
0000cd  00                DCB      0
0000ce  00                DCB      0
0000cf  00                DCB      0
                  |L48.208|
                          DCD      _outfile
                  |L48.212|
0000d4  5345545f          DCB      "SET_MOTION_CONTROL_MODE(CANON_EXACT_STOP)\r\n",0
0000d8  4d4f5449
0000dc  4f4e5f43
0000e0  4f4e5452
0000e4  4f4c5f4d
0000e8  4f444528
0000ec  43414e4f
0000f0  4e5f4558
0000f4  4143545f
0000f8  53544f50
0000fc  290d0a00
                  |L48.256|
                          DCD      _motion_mode
                  |L48.260|
000104  5345545f          DCB      "SET_MOTION_CONTROL_MODE(CANON_EXACT_PATH)\r\n",0
000108  4d4f5449
00010c  4f4e5f43
000110  4f4e5452
000114  4f4c5f4d
000118  4f444528
00011c  43414e4f
000120  4e5f4558
000124  4143545f
000128  50415448
00012c  290d0a00
                  |L48.304|
000130  5345545f          DCB      "SET_MOTION_CONTROL_MODE(CANON_CONTINUOUS)\r\n",0
000134  4d4f5449
000138  4f4e5f43
00013c  4f4e5452
000140  4f4c5f4d
000144  4f444528
000148  43414e4f
00014c  4e5f434f
000150  4e54494e
000154  554f5553
000158  290d0a00
                  |L48.348|
00015c  5345545f          DCB      "SET_MOTION_CONTROL_MODE(UNKNOWN)\r\n",0
000160  4d4f5449
000164  4f4e5f43
000168  4f4e5452
00016c  4f4c5f4d
000170  4f444528
000174  554e4b4e
000178  4f574e29
00017c  0d0a00  
00017f  00                DCB      0

                          AREA ||i.SET_ORIGIN_OFFSETS||, CODE, READONLY, ALIGN=2

                          REQUIRE _printf_pre_padding
                          REQUIRE _printf_percent
                          REQUIRE _printf_widthprec
                          REQUIRE _printf_d
                          REQUIRE _printf_int_dec
                          REQUIRE _printf_f
                          REQUIRE _printf_fp_dec
                  SET_ORIGIN_OFFSETS PROC
;;;214    
;;;215        void SET_ORIGIN_OFFSETS(
000000  e92d5fff          PUSH     {r0-r12,lr}
;;;216        double x, double y, double z
;;;217    #ifdef AA
;;;218        , double a                                    /*AA*/
;;;219    #endif
;;;220    #ifdef BB
;;;221        , double b                                    /*BB*/
;;;222    #endif
;;;223    #ifdef CC
;;;224        , double c                                    /*CC*/
;;;225    #endif
;;;226        )
;;;227    {
000004  4606              MOV      r6,r0
000006  460f              MOV      r7,r1
000008  4614              MOV      r4,r2
00000a  461d              MOV      r5,r3
00000c  e9dd890e          LDRD     r8,r9,[sp,#0x38]
;;;228        fprintf(_outfile, "%5d ", _line_number++);
000010  4823              LDR      r0,|L49.160|
000012  6801              LDR      r1,[r0,#0]  ; _line_number
000014  6800              LDR      r0,[r0,#0]  ; _line_number
000016  f1000001          ADD      r0,r0,#1
00001a  4b21              LDR      r3,|L49.160|
00001c  460a              MOV      r2,r1
00001e  a121              ADR      r1,|L49.164|
000020  6018              STR      r0,[r3,#0]  ; _line_number
000022  4822              LDR      r0,|L49.172|
000024  6800              LDR      r0,[r0,#0]  ; _outfile
000026  f7fffffe          BL       __2fprintf
;;;229        print_nc_line_number();
00002a  f7fffffe          BL       print_nc_line_number
;;;230        fprintf(_outfile, "SET_ORIGIN_OFFSETS(%.4f, %.4f, %.4f"
00002e  4632              MOV      r2,r6
000030  463b              MOV      r3,r7
000032  a11f              ADR      r1,|L49.176|
000034  481d              LDR      r0,|L49.172|
000036  e88d0330          STM      sp,{r4,r5,r8,r9}
00003a  6800              LDR      r0,[r0,#0]  ; _outfile
00003c  f7fffffe          BL       __2fprintf
;;;231        #ifdef AA
;;;232            ", %.4f"                                  /*AA*/
;;;233        #endif
;;;234        #ifdef BB
;;;235            ", %.4f"                                  /*BB*/
;;;236        #endif
;;;237        #ifdef CC
;;;238            ", %.4f"                                  /*CC*/
;;;239        #endif
;;;240            ")\r\n", x, y, z
;;;241        #ifdef AA
;;;242            , a                                       /*AA*/
;;;243        #endif
;;;244        #ifdef BB
;;;245            , b                                       /*BB*/
;;;246        #endif
;;;247        #ifdef CC
;;;248            , c                                       /*CC*/
;;;249        #endif
;;;250            );
;;;251        _program_position_x SET_TO _program_position_x + _program_origin_x - x;
000040  4825              LDR      r0,|L49.216|
000042  4926              LDR      r1,|L49.220|
000044  c80c              LDM      r0!,{r2,r3}
000046  c903              LDM      r1,{r0,r1}
000048  f7fffffe          BL       __aeabi_dadd
00004c  4682              MOV      r10,r0
00004e  4632              MOV      r2,r6
000050  463b              MOV      r3,r7
000052  f7fffffe          BL       __aeabi_dsub
000056  4a21              LDR      r2,|L49.220|
000058  c203              STM      r2!,{r0,r1}
;;;252        _program_position_y SET_TO _program_position_y + _program_origin_y - y;
00005a  4821              LDR      r0,|L49.224|
00005c  4921              LDR      r1,|L49.228|
00005e  c80c              LDM      r0!,{r2,r3}
000060  c903              LDM      r1,{r0,r1}
000062  f7fffffe          BL       __aeabi_dadd
000066  4682              MOV      r10,r0
000068  4622              MOV      r2,r4
00006a  462b              MOV      r3,r5
00006c  f7fffffe          BL       __aeabi_dsub
000070  4a1c              LDR      r2,|L49.228|
000072  c203              STM      r2!,{r0,r1}
;;;253        _program_position_z SET_TO _program_position_z + _program_origin_z - z;
000074  481c              LDR      r0,|L49.232|
000076  491d              LDR      r1,|L49.236|
000078  c80c              LDM      r0!,{r2,r3}
00007a  c903              LDM      r1,{r0,r1}
00007c  f7fffffe          BL       __aeabi_dadd
000080  4682              MOV      r10,r0
000082  4642              MOV      r2,r8
000084  464b              MOV      r3,r9
000086  f7fffffe          BL       __aeabi_dsub
00008a  4a18              LDR      r2,|L49.236|
00008c  c203              STM      r2!,{r0,r1}
;;;254    #ifdef AA
;;;255       /*AA*/
;;;256        _program_position_a SET_TO _program_position_a + _program_origin_a - a;
;;;257    #endif
;;;258    #ifdef BB
;;;259       /*BB*/
;;;260        _program_position_b SET_TO _program_position_b + _program_origin_b - b;
;;;261    #endif
;;;262    #ifdef CC
;;;263       /*CC*/
;;;264        _program_position_c SET_TO _program_position_c + _program_origin_c - c;
;;;265    #endif
;;;266    
;;;267        _program_origin_x SET_TO x;
00008e  4812              LDR      r0,|L49.216|
000090  c0c0              STM      r0!,{r6,r7}
;;;268        _program_origin_y SET_TO y;
000092  4813              LDR      r0,|L49.224|
000094  c030              STM      r0!,{r4,r5}
;;;269        _program_origin_z SET_TO z;
000096  4814              LDR      r0,|L49.232|
000098  e9c08900          STRD     r8,r9,[r0,#0]
;;;270    #ifdef AA
;;;271        _program_origin_a SET_TO a;                   /*AA*/
;;;272    #endif
;;;273    #ifdef BB
;;;274        _program_origin_b SET_TO b;                   /*BB*/
;;;275    #endif
;;;276    #ifdef CC
;;;277        _program_origin_c SET_TO c;                   /*CC*/
;;;278    #endif
;;;279    }
00009c  e8bd9fff          POP      {r0-r12,pc}
;;;280    
                          ENDP

                  |L49.160|
                          DCD      _line_number
                  |L49.164|
0000a4  25356420          DCB      "%5d ",0
0000a8  00      
0000a9  00                DCB      0
0000aa  00                DCB      0
0000ab  00                DCB      0
                  |L49.172|
                          DCD      _outfile
                  |L49.176|
0000b0  5345545f          DCB      "SET_ORIGIN_OFFSETS(%.4f, %.4f, %.4f)\r\n",0
0000b4  4f524947
0000b8  494e5f4f
0000bc  46465345
0000c0  54532825
0000c4  2e34662c
0000c8  20252e34
0000cc  662c2025
0000d0  2e346629
0000d4  0d0a00  
0000d7  00                DCB      0
                  |L49.216|
                          DCD      _program_origin_x
                  |L49.220|
                          DCD      _program_position_x
                  |L49.224|
                          DCD      _program_origin_y
                  |L49.228|
                          DCD      _program_position_y
                  |L49.232|
                          DCD      _program_origin_z
                  |L49.236|
                          DCD      _program_position_z

                          AREA ||i.SET_SPINDLE_SPEED||, CODE, READONLY, ALIGN=2

                          REQUIRE _printf_pre_padding
                          REQUIRE _printf_percent
                          REQUIRE _printf_widthprec
                          REQUIRE _printf_d
                          REQUIRE _printf_int_dec
                          REQUIRE _printf_f
                          REQUIRE _printf_fp_dec
                  SET_SPINDLE_SPEED PROC
;;;684    
;;;685    void SET_SPINDLE_SPEED(double rpm)
000000  b570              PUSH     {r4-r6,lr}
;;;686    {
000002  4604              MOV      r4,r0
000004  460d              MOV      r5,r1
;;;687        PRINT1("SET_SPINDLE_SPEED(%.4f)\r\n", rpm);
000006  480c              LDR      r0,|L50.56|
000008  6801              LDR      r1,[r0,#0]  ; _line_number
00000a  6800              LDR      r0,[r0,#0]  ; _line_number
00000c  f1000001          ADD      r0,r0,#1
000010  4b09              LDR      r3,|L50.56|
000012  460a              MOV      r2,r1
000014  a109              ADR      r1,|L50.60|
000016  6018              STR      r0,[r3,#0]  ; _line_number
000018  480a              LDR      r0,|L50.68|
00001a  6800              LDR      r0,[r0,#0]  ; _outfile
00001c  f7fffffe          BL       __2fprintf
000020  f7fffffe          BL       print_nc_line_number
000024  4622              MOV      r2,r4
000026  462b              MOV      r3,r5
000028  a107              ADR      r1,|L50.72|
00002a  4806              LDR      r0,|L50.68|
00002c  6800              LDR      r0,[r0,#0]  ; _outfile
00002e  f7fffffe          BL       __2fprintf
;;;688        _spindle_speed SET_TO rpm;
000032  480c              LDR      r0,|L50.100|
000034  c030              STM      r0!,{r4,r5}
;;;689    }
000036  bd70              POP      {r4-r6,pc}
;;;690    
                          ENDP

                  |L50.56|
                          DCD      _line_number
                  |L50.60|
00003c  25356420          DCB      "%5d ",0
000040  00      
000041  00                DCB      0
000042  00                DCB      0
000043  00                DCB      0
                  |L50.68|
                          DCD      _outfile
                  |L50.72|
000048  5345545f          DCB      "SET_SPINDLE_SPEED(%.4f)\r\n",0
00004c  5350494e
000050  444c455f
000054  53504545
000058  4428252e
00005c  3466290d
000060  0a00    
000062  00                DCB      0
000063  00                DCB      0
                  |L50.100|
                          DCD      _spindle_speed

                          AREA ||i.SET_TRAVERSE_RATE||, CODE, READONLY, ALIGN=2

                          REQUIRE _printf_pre_padding
                          REQUIRE _printf_percent
                          REQUIRE _printf_widthprec
                          REQUIRE _printf_d
                          REQUIRE _printf_int_dec
                          REQUIRE _printf_f
                          REQUIRE _printf_fp_dec
                  SET_TRAVERSE_RATE PROC
;;;319       /* Free Space Motion */
;;;320    void SET_TRAVERSE_RATE(double rate)
000000  b570              PUSH     {r4-r6,lr}
;;;321    {
000002  4604              MOV      r4,r0
000004  460d              MOV      r5,r1
;;;322        PRINT1("SET_TRAVERSE_RATE(%.4f)\r\n", rate);
000006  480c              LDR      r0,|L51.56|
000008  6801              LDR      r1,[r0,#0]  ; _line_number
00000a  6800              LDR      r0,[r0,#0]  ; _line_number
00000c  f1000001          ADD      r0,r0,#1
000010  4b09              LDR      r3,|L51.56|
000012  460a              MOV      r2,r1
000014  a109              ADR      r1,|L51.60|
000016  6018              STR      r0,[r3,#0]  ; _line_number
000018  480a              LDR      r0,|L51.68|
00001a  6800              LDR      r0,[r0,#0]  ; _outfile
00001c  f7fffffe          BL       __2fprintf
000020  f7fffffe          BL       print_nc_line_number
000024  4622              MOV      r2,r4
000026  462b              MOV      r3,r5
000028  a107              ADR      r1,|L51.72|
00002a  4806              LDR      r0,|L51.68|
00002c  6800              LDR      r0,[r0,#0]  ; _outfile
00002e  f7fffffe          BL       __2fprintf
;;;323        _traverse_rate SET_TO rate;
000032  480c              LDR      r0,|L51.100|
000034  c030              STM      r0!,{r4,r5}
;;;324    }
000036  bd70              POP      {r4-r6,pc}
;;;325    
                          ENDP

                  |L51.56|
                          DCD      _line_number
                  |L51.60|
00003c  25356420          DCB      "%5d ",0
000040  00      
000041  00                DCB      0
000042  00                DCB      0
000043  00                DCB      0
                  |L51.68|
                          DCD      _outfile
                  |L51.72|
000048  5345545f          DCB      "SET_TRAVERSE_RATE(%.4f)\r\n",0
00004c  54524156
000050  45525345
000054  5f524154
000058  4528252e
00005c  3466290d
000060  0a00    
000062  00                DCB      0
000063  00                DCB      0
                  |L51.100|
                          DCD      _traverse_rate

                          AREA ||i.SPINDLE_RETRACT||, CODE, READONLY, ALIGN=2

                          REQUIRE _printf_pre_padding
                          REQUIRE _printf_percent
                          REQUIRE _printf_widthprec
                          REQUIRE _printf_d
                          REQUIRE _printf_int_dec
                  SPINDLE_RETRACT PROC
;;;698    
;;;699    void SPINDLE_RETRACT()
000000  b510              PUSH     {r4,lr}
;;;700    {PRINT0("SPINDLE_RETRACT()\r\n");}
000002  480a              LDR      r0,|L52.44|
000004  6801              LDR      r1,[r0,#0]  ; _line_number
000006  6800              LDR      r0,[r0,#0]  ; _line_number
000008  1c40              ADDS     r0,r0,#1
00000a  4b08              LDR      r3,|L52.44|
00000c  460a              MOV      r2,r1
00000e  a108              ADR      r1,|L52.48|
000010  6018              STR      r0,[r3,#0]  ; _line_number
000012  4809              LDR      r0,|L52.56|
000014  6800              LDR      r0,[r0,#0]  ; _outfile
000016  f7fffffe          BL       __2fprintf
00001a  f7fffffe          BL       print_nc_line_number
00001e  a107              ADR      r1,|L52.60|
000020  4805              LDR      r0,|L52.56|
000022  6800              LDR      r0,[r0,#0]  ; _outfile
000024  f7fffffe          BL       __2fprintf
000028  bd10              POP      {r4,pc}
;;;701    
                          ENDP

00002a  0000              DCW      0x0000
                  |L52.44|
                          DCD      _line_number
                  |L52.48|
000030  25356420          DCB      "%5d ",0
000034  00      
000035  00                DCB      0
000036  00                DCB      0
000037  00                DCB      0
                  |L52.56|
                          DCD      _outfile
                  |L52.60|
00003c  5350494e          DCB      "SPINDLE_RETRACT()\r\n",0
000040  444c455f
000044  52455452
000048  41435428
00004c  290d0a00

                          AREA ||i.SPINDLE_RETRACT_TRAVERSE||, CODE, READONLY, ALIGN=2

                          REQUIRE _printf_pre_padding
                          REQUIRE _printf_percent
                          REQUIRE _printf_widthprec
                          REQUIRE _printf_d
                          REQUIRE _printf_int_dec
                  SPINDLE_RETRACT_TRAVERSE PROC
;;;665       /* Spindle Functions */
;;;666    void SPINDLE_RETRACT_TRAVERSE()
000000  b510              PUSH     {r4,lr}
;;;667    {PRINT0("SPINDLE_RETRACT_TRAVERSE()\r\n");}
000002  480a              LDR      r0,|L53.44|
000004  6801              LDR      r1,[r0,#0]  ; _line_number
000006  6800              LDR      r0,[r0,#0]  ; _line_number
000008  1c40              ADDS     r0,r0,#1
00000a  4b08              LDR      r3,|L53.44|
00000c  460a              MOV      r2,r1
00000e  a108              ADR      r1,|L53.48|
000010  6018              STR      r0,[r3,#0]  ; _line_number
000012  4809              LDR      r0,|L53.56|
000014  6800              LDR      r0,[r0,#0]  ; _outfile
000016  f7fffffe          BL       __2fprintf
00001a  f7fffffe          BL       print_nc_line_number
00001e  a107              ADR      r1,|L53.60|
000020  4805              LDR      r0,|L53.56|
000022  6800              LDR      r0,[r0,#0]  ; _outfile
000024  f7fffffe          BL       __2fprintf
000028  bd10              POP      {r4,pc}
;;;668    
                          ENDP

00002a  0000              DCW      0x0000
                  |L53.44|
                          DCD      _line_number
                  |L53.48|
000030  25356420          DCB      "%5d ",0
000034  00      
000035  00                DCB      0
000036  00                DCB      0
000037  00                DCB      0
                  |L53.56|
                          DCD      _outfile
                  |L53.60|
00003c  5350494e          DCB      "SPINDLE_RETRACT_TRAVERSE()\r\n",0
000040  444c455f
000044  52455452
000048  4143545f
00004c  54524156
000050  45525345
000054  28290d0a
000058  00      
000059  00                DCB      0
00005a  00                DCB      0
00005b  00                DCB      0

                          AREA ||i.START_CUTTER_RADIUS_COMPENSATION||, CODE, READONLY, ALIGN=2

                          REQUIRE _printf_pre_padding
                          REQUIRE _printf_percent
                          REQUIRE _printf_widthprec
                          REQUIRE _printf_d
                          REQUIRE _printf_int_dec
                          REQUIRE _printf_s
                          REQUIRE _printf_str
                  START_CUTTER_RADIUS_COMPENSATION PROC
;;;427    
;;;428    void START_CUTTER_RADIUS_COMPENSATION(int side)
000000  b510              PUSH     {r4,lr}
;;;429    {
000002  4604              MOV      r4,r0
;;;430        PRINT1("START_CUTTER_RADIUS_COMPENSATION(%s)\r\n",
000004  480f              LDR      r0,|L54.68|
000006  6801              LDR      r1,[r0,#0]  ; _line_number
000008  6800              LDR      r0,[r0,#0]  ; _line_number
00000a  f1000001          ADD      r0,r0,#1
00000e  4b0d              LDR      r3,|L54.68|
000010  460a              MOV      r2,r1
000012  a10d              ADR      r1,|L54.72|
000014  6018              STR      r0,[r3,#0]  ; _line_number
000016  480e              LDR      r0,|L54.80|
000018  6800              LDR      r0,[r0,#0]  ; _outfile
00001a  f7fffffe          BL       __2fprintf
00001e  f7fffffe          BL       print_nc_line_number
000022  2c02              CMP      r4,#2
000024  d101              BNE      |L54.42|
000026  a00b              ADR      r0,|L54.84|
000028  e004              B        |L54.52|
                  |L54.42|
00002a  2c01              CMP      r4,#1
00002c  d101              BNE      |L54.50|
00002e  a00b              ADR      r0,|L54.92|
000030  e000              B        |L54.52|
                  |L54.50|
000032  a00c              ADR      r0,|L54.100|
                  |L54.52|
000034  4602              MOV      r2,r0
000036  a10d              ADR      r1,|L54.108|
000038  4805              LDR      r0,|L54.80|
00003a  6800              LDR      r0,[r0,#0]  ; _outfile
00003c  f7fffffe          BL       __2fprintf
;;;431            (side IS CANON_SIDE_LEFT)  ? "LEFT"  :
;;;432        (side IS CANON_SIDE_RIGHT) ? "RIGHT" : "UNKNOWN");
;;;433    }
000040  bd10              POP      {r4,pc}
;;;434    
                          ENDP

000042  0000              DCW      0x0000
                  |L54.68|
                          DCD      _line_number
                  |L54.72|
000048  25356420          DCB      "%5d ",0
00004c  00      
00004d  00                DCB      0
00004e  00                DCB      0
00004f  00                DCB      0
                  |L54.80|
                          DCD      _outfile
                  |L54.84|
000054  4c454654          DCB      "LEFT",0
000058  00      
000059  00                DCB      0
00005a  00                DCB      0
00005b  00                DCB      0
                  |L54.92|
00005c  52494748          DCB      "RIGHT",0
000060  5400    
000062  00                DCB      0
000063  00                DCB      0
                  |L54.100|
000064  554e4b4e          DCB      "UNKNOWN",0
000068  4f574e00
                  |L54.108|
00006c  53544152          DCB      "START_CUTTER_RADIUS_COMPENSATION(%s)\r\n",0
000070  545f4355
000074  54544552
000078  5f524144
00007c  4955535f
000080  434f4d50
000084  454e5341
000088  54494f4e
00008c  28257329
000090  0d0a00  
000093  00                DCB      0

                          AREA ||i.START_SPEED_FEED_SYNCH||, CODE, READONLY, ALIGN=2

                          REQUIRE _printf_pre_padding
                          REQUIRE _printf_percent
                          REQUIRE _printf_widthprec
                          REQUIRE _printf_d
                          REQUIRE _printf_int_dec
                  START_SPEED_FEED_SYNCH PROC
;;;438    
;;;439    void START_SPEED_FEED_SYNCH()
000000  b510              PUSH     {r4,lr}
;;;440    {PRINT0 ("START_SPEED_FEED_SYNCH()\r\n");}
000002  480a              LDR      r0,|L55.44|
000004  6801              LDR      r1,[r0,#0]  ; _line_number
000006  6800              LDR      r0,[r0,#0]  ; _line_number
000008  1c40              ADDS     r0,r0,#1
00000a  4b08              LDR      r3,|L55.44|
00000c  460a              MOV      r2,r1
00000e  a108              ADR      r1,|L55.48|
000010  6018              STR      r0,[r3,#0]  ; _line_number
000012  4809              LDR      r0,|L55.56|
000014  6800              LDR      r0,[r0,#0]  ; _outfile
000016  f7fffffe          BL       __2fprintf
00001a  f7fffffe          BL       print_nc_line_number
00001e  a107              ADR      r1,|L55.60|
000020  4805              LDR      r0,|L55.56|
000022  6800              LDR      r0,[r0,#0]  ; _outfile
000024  f7fffffe          BL       __2fprintf
000028  bd10              POP      {r4,pc}
;;;441    
                          ENDP

00002a  0000              DCW      0x0000
                  |L55.44|
                          DCD      _line_number
                  |L55.48|
000030  25356420          DCB      "%5d ",0
000034  00      
000035  00                DCB      0
000036  00                DCB      0
000037  00                DCB      0
                  |L55.56|
                          DCD      _outfile
                  |L55.60|
00003c  53544152          DCB      "START_SPEED_FEED_SYNCH()\r\n",0
000040  545f5350
000044  4545445f
000048  46454544
00004c  5f53594e
000050  43482829
000054  0d0a00  
000057  00                DCB      0

                          AREA ||i.START_SPINDLE_CLOCKWISE||, CODE, READONLY, ALIGN=2

                          REQUIRE _printf_pre_padding
                          REQUIRE _printf_percent
                          REQUIRE _printf_widthprec
                          REQUIRE _printf_d
                          REQUIRE _printf_int_dec
                  START_SPINDLE_CLOCKWISE PROC
;;;668    
;;;669    void START_SPINDLE_CLOCKWISE()
000000  b510              PUSH     {r4,lr}
;;;670    {
;;;671        PRINT0("START_SPINDLE_CLOCKWISE()\r\n");
000002  4811              LDR      r0,|L56.72|
000004  6801              LDR      r1,[r0,#0]  ; _line_number
000006  6800              LDR      r0,[r0,#0]  ; _line_number
000008  1c40              ADDS     r0,r0,#1
00000a  4b0f              LDR      r3,|L56.72|
00000c  460a              MOV      r2,r1
00000e  a10f              ADR      r1,|L56.76|
000010  6018              STR      r0,[r3,#0]  ; _line_number
000012  4810              LDR      r0,|L56.84|
000014  6800              LDR      r0,[r0,#0]  ; _outfile
000016  f7fffffe          BL       __2fprintf
00001a  f7fffffe          BL       print_nc_line_number
00001e  a10e              ADR      r1,|L56.88|
000020  480c              LDR      r0,|L56.84|
000022  6800              LDR      r0,[r0,#0]  ; _outfile
000024  f7fffffe          BL       __2fprintf
;;;672        _spindle_turning SET_TO ((_spindle_speed IS 0) ? CANON_STOPPED :
000028  2200              MOVS     r2,#0
00002a  4613              MOV      r3,r2
00002c  4911              LDR      r1,|L56.116|
00002e  c903              LDM      r1,{r0,r1}
000030  f7fffffe          BL       __aeabi_cdcmpeq
000034  d102              BNE      |L56.60|
000036  f04f0001          MOV      r0,#1
00003a  e001              B        |L56.64|
                  |L56.60|
;;;673        CANON_CLOCKWISE);
00003c  f04f0002          MOV      r0,#2
                  |L56.64|
000040  490d              LDR      r1,|L56.120|
000042  6008              STR      r0,[r1,#0]  ; _spindle_turning
;;;674    }
000044  bd10              POP      {r4,pc}
;;;675    
                          ENDP

000046  0000              DCW      0x0000
                  |L56.72|
                          DCD      _line_number
                  |L56.76|
00004c  25356420          DCB      "%5d ",0
000050  00      
000051  00                DCB      0
000052  00                DCB      0
000053  00                DCB      0
                  |L56.84|
                          DCD      _outfile
                  |L56.88|
000058  53544152          DCB      "START_SPINDLE_CLOCKWISE()\r\n",0
00005c  545f5350
000060  494e444c
000064  455f434c
000068  4f434b57
00006c  49534528
000070  290d0a00
                  |L56.116|
                          DCD      _spindle_speed
                  |L56.120|
                          DCD      _spindle_turning

                          AREA ||i.START_SPINDLE_COUNTERCLOCKWISE||, CODE, READONLY, ALIGN=2

                          REQUIRE _printf_pre_padding
                          REQUIRE _printf_percent
                          REQUIRE _printf_widthprec
                          REQUIRE _printf_d
                          REQUIRE _printf_int_dec
                  START_SPINDLE_COUNTERCLOCKWISE PROC
;;;676    
;;;677    void START_SPINDLE_COUNTERCLOCKWISE()
000000  b510              PUSH     {r4,lr}
;;;678    {
;;;679        PRINT0("START_SPINDLE_COUNTERCLOCKWISE()\r\n");
000002  4811              LDR      r0,|L57.72|
000004  6801              LDR      r1,[r0,#0]  ; _line_number
000006  6800              LDR      r0,[r0,#0]  ; _line_number
000008  1c40              ADDS     r0,r0,#1
00000a  4b0f              LDR      r3,|L57.72|
00000c  460a              MOV      r2,r1
00000e  a10f              ADR      r1,|L57.76|
000010  6018              STR      r0,[r3,#0]  ; _line_number
000012  4810              LDR      r0,|L57.84|
000014  6800              LDR      r0,[r0,#0]  ; _outfile
000016  f7fffffe          BL       __2fprintf
00001a  f7fffffe          BL       print_nc_line_number
00001e  a10e              ADR      r1,|L57.88|
000020  480c              LDR      r0,|L57.84|
000022  6800              LDR      r0,[r0,#0]  ; _outfile
000024  f7fffffe          BL       __2fprintf
;;;680        _spindle_turning SET_TO ((_spindle_speed IS 0) ? CANON_STOPPED :
000028  2200              MOVS     r2,#0
00002a  4613              MOV      r3,r2
00002c  4913              LDR      r1,|L57.124|
00002e  c903              LDM      r1,{r0,r1}
000030  f7fffffe          BL       __aeabi_cdcmpeq
000034  d102              BNE      |L57.60|
000036  f04f0001          MOV      r0,#1
00003a  e001              B        |L57.64|
                  |L57.60|
;;;681        CANON_COUNTERCLOCKWISE);
00003c  f04f0003          MOV      r0,#3
                  |L57.64|
000040  490f              LDR      r1,|L57.128|
000042  6008              STR      r0,[r1,#0]  ; _spindle_turning
;;;682    }
000044  bd10              POP      {r4,pc}
;;;683    
                          ENDP

000046  0000              DCW      0x0000
                  |L57.72|
                          DCD      _line_number
                  |L57.76|
00004c  25356420          DCB      "%5d ",0
000050  00      
000051  00                DCB      0
000052  00                DCB      0
000053  00                DCB      0
                  |L57.84|
                          DCD      _outfile
                  |L57.88|
000058  53544152          DCB      "START_SPINDLE_COUNTERCLOCKWISE()\r\n",0
00005c  545f5350
000060  494e444c
000064  455f434f
000068  554e5445
00006c  52434c4f
000070  434b5749
000074  53452829
000078  0d0a00  
00007b  00                DCB      0
                  |L57.124|
                          DCD      _spindle_speed
                  |L57.128|
                          DCD      _spindle_turning

                          AREA ||i.STOP_CUTTER_RADIUS_COMPENSATION||, CODE, READONLY, ALIGN=2

                          REQUIRE _printf_pre_padding
                          REQUIRE _printf_percent
                          REQUIRE _printf_widthprec
                          REQUIRE _printf_d
                          REQUIRE _printf_int_dec
                  STOP_CUTTER_RADIUS_COMPENSATION PROC
;;;435    
;;;436    void STOP_CUTTER_RADIUS_COMPENSATION()
000000  b510              PUSH     {r4,lr}
;;;437    {PRINT0 ("STOP_CUTTER_RADIUS_COMPENSATION()\r\n");}
000002  480a              LDR      r0,|L58.44|
000004  6801              LDR      r1,[r0,#0]  ; _line_number
000006  6800              LDR      r0,[r0,#0]  ; _line_number
000008  1c40              ADDS     r0,r0,#1
00000a  4b08              LDR      r3,|L58.44|
00000c  460a              MOV      r2,r1
00000e  a108              ADR      r1,|L58.48|
000010  6018              STR      r0,[r3,#0]  ; _line_number
000012  4809              LDR      r0,|L58.56|
000014  6800              LDR      r0,[r0,#0]  ; _outfile
000016  f7fffffe          BL       __2fprintf
00001a  f7fffffe          BL       print_nc_line_number
00001e  a107              ADR      r1,|L58.60|
000020  4805              LDR      r0,|L58.56|
000022  6800              LDR      r0,[r0,#0]  ; _outfile
000024  f7fffffe          BL       __2fprintf
000028  bd10              POP      {r4,pc}
;;;438    
                          ENDP

00002a  0000              DCW      0x0000
                  |L58.44|
                          DCD      _line_number
                  |L58.48|
000030  25356420          DCB      "%5d ",0
000034  00      
000035  00                DCB      0
000036  00                DCB      0
000037  00                DCB      0
                  |L58.56|
                          DCD      _outfile
                  |L58.60|
00003c  53544f50          DCB      "STOP_CUTTER_RADIUS_COMPENSATION()\r\n",0
000040  5f435554
000044  5445525f
000048  52414449
00004c  55535f43
000050  4f4d5045
000054  4e534154
000058  494f4e28
00005c  290d0a00

                          AREA ||i.STOP_SPEED_FEED_SYNCH||, CODE, READONLY, ALIGN=2

                          REQUIRE _printf_pre_padding
                          REQUIRE _printf_percent
                          REQUIRE _printf_widthprec
                          REQUIRE _printf_d
                          REQUIRE _printf_int_dec
                  STOP_SPEED_FEED_SYNCH PROC
;;;441    
;;;442    void STOP_SPEED_FEED_SYNCH()
000000  b510              PUSH     {r4,lr}
;;;443    {PRINT0 ("STOP_SPEED_FEED_SYNCH()\r\n");}
000002  480a              LDR      r0,|L59.44|
000004  6801              LDR      r1,[r0,#0]  ; _line_number
000006  6800              LDR      r0,[r0,#0]  ; _line_number
000008  1c40              ADDS     r0,r0,#1
00000a  4b08              LDR      r3,|L59.44|
00000c  460a              MOV      r2,r1
00000e  a108              ADR      r1,|L59.48|
000010  6018              STR      r0,[r3,#0]  ; _line_number
000012  4809              LDR      r0,|L59.56|
000014  6800              LDR      r0,[r0,#0]  ; _outfile
000016  f7fffffe          BL       __2fprintf
00001a  f7fffffe          BL       print_nc_line_number
00001e  a107              ADR      r1,|L59.60|
000020  4805              LDR      r0,|L59.56|
000022  6800              LDR      r0,[r0,#0]  ; _outfile
000024  f7fffffe          BL       __2fprintf
000028  bd10              POP      {r4,pc}
;;;444    
                          ENDP

00002a  0000              DCW      0x0000
                  |L59.44|
                          DCD      _line_number
                  |L59.48|
000030  25356420          DCB      "%5d ",0
000034  00      
000035  00                DCB      0
000036  00                DCB      0
000037  00                DCB      0
                  |L59.56|
                          DCD      _outfile
                  |L59.60|
00003c  53544f50          DCB      "STOP_SPEED_FEED_SYNCH()\r\n",0
000040  5f535045
000044  45445f46
000048  4545445f
00004c  53594e43
000050  4828290d
000054  0a00    
000056  00                DCB      0
000057  00                DCB      0

                          AREA ||i.STOP_SPINDLE_TURNING||, CODE, READONLY, ALIGN=2

                          REQUIRE _printf_pre_padding
                          REQUIRE _printf_percent
                          REQUIRE _printf_widthprec
                          REQUIRE _printf_d
                          REQUIRE _printf_int_dec
                  STOP_SPINDLE_TURNING PROC
;;;691    
;;;692    void STOP_SPINDLE_TURNING()
000000  b510              PUSH     {r4,lr}
;;;693    {
;;;694        PRINT0("STOP_SPINDLE_TURNING()\r\n");
000002  480c              LDR      r0,|L60.52|
000004  6801              LDR      r1,[r0,#0]  ; _line_number
000006  6800              LDR      r0,[r0,#0]  ; _line_number
000008  1c40              ADDS     r0,r0,#1
00000a  4b0a              LDR      r3,|L60.52|
00000c  460a              MOV      r2,r1
00000e  a10a              ADR      r1,|L60.56|
000010  6018              STR      r0,[r3,#0]  ; _line_number
000012  480b              LDR      r0,|L60.64|
000014  6800              LDR      r0,[r0,#0]  ; _outfile
000016  f7fffffe          BL       __2fprintf
00001a  f7fffffe          BL       print_nc_line_number
00001e  a109              ADR      r1,|L60.68|
000020  4807              LDR      r0,|L60.64|
000022  6800              LDR      r0,[r0,#0]  ; _outfile
000024  f7fffffe          BL       __2fprintf
;;;695        _spindle_turning SET_TO CANON_STOPPED;
000028  f04f0001          MOV      r0,#1
00002c  490c              LDR      r1,|L60.96|
00002e  6008              STR      r0,[r1,#0]  ; _spindle_turning
;;;696    }
000030  bd10              POP      {r4,pc}
;;;697    
                          ENDP

000032  0000              DCW      0x0000
                  |L60.52|
                          DCD      _line_number
                  |L60.56|
000038  25356420          DCB      "%5d ",0
00003c  00      
00003d  00                DCB      0
00003e  00                DCB      0
00003f  00                DCB      0
                  |L60.64|
                          DCD      _outfile
                  |L60.68|
000044  53544f50          DCB      "STOP_SPINDLE_TURNING()\r\n",0
000048  5f535049
00004c  4e444c45
000050  5f545552
000054  4e494e47
000058  28290d0a
00005c  00      
00005d  00                DCB      0
00005e  00                DCB      0
00005f  00                DCB      0
                  |L60.96|
                          DCD      _spindle_turning

                          AREA ||i.STRAIGHT_FEED||, CODE, READONLY, ALIGN=2

                          REQUIRE _printf_pre_padding
                          REQUIRE _printf_percent
                          REQUIRE _printf_widthprec
                          REQUIRE _printf_d
                          REQUIRE _printf_int_dec
                          REQUIRE _printf_f
                          REQUIRE _printf_fp_dec
                  STRAIGHT_FEED PROC
;;;514    
;;;515    void STRAIGHT_FEED(
000000  e92d47ff          PUSH     {r0-r10,lr}
;;;516    double x, double y, double z
;;;517    #ifdef AA
;;;518    , double a                                        /*AA*/
;;;519    #endif
;;;520    #ifdef BB
;;;521    , double b                                        /*BB*/
;;;522    #endif
;;;523    #ifdef CC
;;;524    , double c                                        /*CC*/
;;;525    #endif
;;;526    )
;;;527    {
000004  4606              MOV      r6,r0
000006  460f              MOV      r7,r1
000008  4614              MOV      r4,r2
00000a  461d              MOV      r5,r3
00000c  e9dd890c          LDRD     r8,r9,[sp,#0x30]
;;;528        fprintf(_outfile, "%5d ", _line_number++);
000010  4810              LDR      r0,|L61.84|
000012  6801              LDR      r1,[r0,#0]  ; _line_number
000014  6800              LDR      r0,[r0,#0]  ; _line_number
000016  f1000001          ADD      r0,r0,#1
00001a  4b0e              LDR      r3,|L61.84|
00001c  460a              MOV      r2,r1
00001e  a10e              ADR      r1,|L61.88|
000020  6018              STR      r0,[r3,#0]  ; _line_number
000022  480f              LDR      r0,|L61.96|
000024  6800              LDR      r0,[r0,#0]  ; _outfile
000026  f7fffffe          BL       __2fprintf
;;;529        print_nc_line_number();
00002a  f7fffffe          BL       print_nc_line_number
;;;530        fprintf(_outfile, "STRAIGHT_FEED(%.4f, %.4f, %.4f"
00002e  4632              MOV      r2,r6
000030  463b              MOV      r3,r7
000032  a10c              ADR      r1,|L61.100|
000034  480a              LDR      r0,|L61.96|
000036  e88d0330          STM      sp,{r4,r5,r8,r9}
00003a  6800              LDR      r0,[r0,#0]  ; _outfile
00003c  f7fffffe          BL       __2fprintf
;;;531        #ifdef AA
;;;532            ", %.4f"                                  /*AA*/
;;;533        #endif
;;;534        #ifdef BB
;;;535            ", %.4f"                                  /*BB*/
;;;536        #endif
;;;537        #ifdef CC
;;;538            ", %.4f"                                  /*CC*/
;;;539        #endif
;;;540            ")\r\n", x, y, z
;;;541        #ifdef AA
;;;542            , a                                       /*AA*/
;;;543        #endif
;;;544        #ifdef BB
;;;545            , b                                       /*BB*/
;;;546        #endif
;;;547        #ifdef CC
;;;548            , c                                       /*CC*/
;;;549        #endif
;;;550            );
;;;551        _program_position_x SET_TO x;
000040  4811              LDR      r0,|L61.136|
000042  c0c0              STM      r0!,{r6,r7}
;;;552        _program_position_y SET_TO y;
000044  4811              LDR      r0,|L61.140|
000046  c030              STM      r0!,{r4,r5}
;;;553        _program_position_z SET_TO z;
000048  4811              LDR      r0,|L61.144|
00004a  e9c08900          STRD     r8,r9,[r0,#0]
;;;554    #ifdef AA
;;;555        _program_position_a SET_TO a;                 /*AA*/
;;;556    #endif
;;;557    #ifdef BB
;;;558        _program_position_b SET_TO b;                 /*BB*/
;;;559    #endif
;;;560    #ifdef CC
;;;561        _program_position_c SET_TO c;                 /*CC*/
;;;562    #endif
;;;563    }
00004e  e8bd87ff          POP      {r0-r10,pc}
;;;564    
                          ENDP

000052  0000              DCW      0x0000
                  |L61.84|
                          DCD      _line_number
                  |L61.88|
000058  25356420          DCB      "%5d ",0
00005c  00      
00005d  00                DCB      0
00005e  00                DCB      0
00005f  00                DCB      0
                  |L61.96|
                          DCD      _outfile
                  |L61.100|
000064  53545241          DCB      "STRAIGHT_FEED(%.4f, %.4f, %.4f)\r\n",0
000068  49474854
00006c  5f464545
000070  4428252e
000074  34662c20
000078  252e3466
00007c  2c20252e
000080  3466290d
000084  0a00    
000086  00                DCB      0
000087  00                DCB      0
                  |L61.136|
                          DCD      _program_position_x
                  |L61.140|
                          DCD      _program_position_y
                  |L61.144|
                          DCD      _program_position_z

                          AREA ||i.STRAIGHT_PROBE||, CODE, READONLY, ALIGN=2

                          REQUIRE _printf_pre_padding
                          REQUIRE _printf_percent
                          REQUIRE _printf_widthprec
                          REQUIRE _printf_d
                          REQUIRE _printf_int_dec
                          REQUIRE _printf_f
                          REQUIRE _printf_fp_dec
                  STRAIGHT_PROBE PROC
;;;569    
;;;570    void STRAIGHT_PROBE(
000000  e92d4ff0          PUSH     {r4-r11,lr}
;;;571    double x, double y, double z
;;;572    #ifdef AA
;;;573    , double a                                        /*AA*/
;;;574    #endif
;;;575    #ifdef BB
;;;576    , double b                                        /*BB*/
;;;577    #endif
;;;578    #ifdef CC
;;;579    , double c                                        /*CC*/
;;;580    #endif
;;;581    )
;;;582    {
000004  b093              SUB      sp,sp,#0x4c
000006  4606              MOV      r6,r0
000008  460f              MOV      r7,r1
00000a  4614              MOV      r4,r2
00000c  461d              MOV      r5,r3
00000e  e9dd891c          LDRD     r8,r9,[sp,#0x70]
;;;583        double distance;
;;;584        double dx, dy, dz;
;;;585        double backoff;
;;;586    
;;;587        dx SET_TO (_program_position_x - x);
000012  4865              LDR      r0,|L62.424|
000014  c80c              LDM      r0!,{r2,r3}
000016  4630              MOV      r0,r6
000018  4639              MOV      r1,r7
00001a  f7fffffe          BL       __aeabi_drsub
00001e  e9cd0110          STRD     r0,r1,[sp,#0x40]
;;;588        dy SET_TO (_program_position_y - y);
000022  4622              MOV      r2,r4
000024  462b              MOV      r3,r5
000026  4961              LDR      r1,|L62.428|
000028  c903              LDM      r1,{r0,r1}
00002a  f7fffffe          BL       __aeabi_dsub
00002e  e9cd010e          STRD     r0,r1,[sp,#0x38]
;;;589        dz SET_TO (_program_position_z - z);
000032  4642              MOV      r2,r8
000034  464b              MOV      r3,r9
000036  495e              LDR      r1,|L62.432|
000038  c903              LDM      r1,{r0,r1}
00003a  f7fffffe          BL       __aeabi_dsub
00003e  e9cd010c          STRD     r0,r1,[sp,#0x30]
;;;590        distance SET_TO sqrt((dx * dx) + (dy * dy) + (dz * dz));
000042  e9dd230c          LDRD     r2,r3,[sp,#0x30]
000046  4610              MOV      r0,r2
000048  4619              MOV      r1,r3
00004a  f7fffffe          BL       __aeabi_dmul
00004e  e9cd0106          STRD     r0,r1,[sp,#0x18]
000052  e9dd230e          LDRD     r2,r3,[sp,#0x38]
000056  4610              MOV      r0,r2
000058  4619              MOV      r1,r3
00005a  f7fffffe          BL       __aeabi_dmul
00005e  e9cd0102          STRD     r0,r1,[sp,#8]
000062  e9dd2310          LDRD     r2,r3,[sp,#0x40]
000066  4610              MOV      r0,r2
000068  4619              MOV      r1,r3
00006a  f7fffffe          BL       __aeabi_dmul
00006e  e9cd0100          STRD     r0,r1,[sp,#0]
000072  e9dd2302          LDRD     r2,r3,[sp,#8]
000076  f7fffffe          BL       __aeabi_dadd
00007a  e9cd0104          STRD     r0,r1,[sp,#0x10]
00007e  e9dd2306          LDRD     r2,r3,[sp,#0x18]
000082  f7fffffe          BL       __aeabi_dadd
000086  e9cd0108          STRD     r0,r1,[sp,#0x20]
00008a  f7fffffe          BL       sqrt
00008e  4682              MOV      r10,r0
000090  468b              MOV      r11,r1
;;;591    
;;;592        fprintf(_outfile, "%5d ", _line_number++);
000092  4848              LDR      r0,|L62.436|
000094  6801              LDR      r1,[r0,#0]  ; _line_number
000096  6800              LDR      r0,[r0,#0]  ; _line_number
000098  f1000001          ADD      r0,r0,#1
00009c  4b45              LDR      r3,|L62.436|
00009e  460a              MOV      r2,r1
0000a0  a145              ADR      r1,|L62.440|
0000a2  6018              STR      r0,[r3,#0]  ; _line_number
0000a4  4846              LDR      r0,|L62.448|
0000a6  6800              LDR      r0,[r0,#0]  ; _outfile
0000a8  f7fffffe          BL       __2fprintf
;;;593        print_nc_line_number();
0000ac  f7fffffe          BL       print_nc_line_number
;;;594        fprintf(_outfile, "STRAIGHT_PROBE(%.4f, %.4f, %.4f"
0000b0  4632              MOV      r2,r6
0000b2  463b              MOV      r3,r7
0000b4  a143              ADR      r1,|L62.452|
0000b6  4842              LDR      r0,|L62.448|
0000b8  e88d0330          STM      sp,{r4,r5,r8,r9}
0000bc  6800              LDR      r0,[r0,#0]  ; _outfile
0000be  f7fffffe          BL       __2fprintf
;;;595        #ifdef AA
;;;596            ", %.4f"                                  /*AA*/
;;;597        #endif
;;;598        #ifdef BB
;;;599            ", %.4f"                                  /*BB*/
;;;600        #endif
;;;601        #ifdef CC
;;;602            ", %.4f"                                  /*CC*/
;;;603        #endif
;;;604            ")\r\n", x, y, z
;;;605        #ifdef AA
;;;606            , a                                       /*AA*/
;;;607        #endif
;;;608        #ifdef BB
;;;609            , b                                       /*BB*/
;;;610        #endif
;;;611        #ifdef CC
;;;612            , c                                       /*CC*/
;;;613        #endif
;;;614            );
;;;615        _probe_position_x SET_TO x;
0000c2  4849              LDR      r0,|L62.488|
0000c4  c0c0              STM      r0!,{r6,r7}
;;;616        _probe_position_y SET_TO y;
0000c6  4849              LDR      r0,|L62.492|
0000c8  c030              STM      r0!,{r4,r5}
;;;617        _probe_position_z SET_TO z;
0000ca  4849              LDR      r0,|L62.496|
0000cc  e9c08900          STRD     r8,r9,[r0,#0]
;;;618    #ifdef AA
;;;619        _probe_position_a SET_TO a;                   /*AA*/
;;;620    #endif
;;;621    #ifdef BB
;;;622        _probe_position_b SET_TO b;                   /*BB*/
;;;623    #endif
;;;624    #ifdef CC
;;;625        _probe_position_c SET_TO c;                   /*CC*/
;;;626    #endif
;;;627        if (distance IS 0)
0000d0  2200              MOVS     r2,#0
0000d2  4613              MOV      r3,r2
0000d4  4650              MOV      r0,r10
0000d6  4659              MOV      r1,r11
0000d8  f7fffffe          BL       __aeabi_cdcmpeq
0000dc  d10e              BNE      |L62.252|
;;;628        {
;;;629            _program_position_x SET_TO _program_position_x;
0000de  4932              LDR      r1,|L62.424|
0000e0  c903              LDM      r1,{r0,r1}
0000e2  4a31              LDR      r2,|L62.424|
0000e4  c203              STM      r2!,{r0,r1}
;;;630            _program_position_y SET_TO _program_position_y;
0000e6  4831              LDR      r0,|L62.428|
0000e8  e9d01000          LDRD     r1,r0,[r0,#0]
0000ec  4a2f              LDR      r2,|L62.428|
0000ee  e9c21000          STRD     r1,r0,[r2,#0]
;;;631            _program_position_z SET_TO _program_position_z;
0000f2  492f              LDR      r1,|L62.432|
0000f4  c903              LDM      r1,{r0,r1}
0000f6  4a2e              LDR      r2,|L62.432|
0000f8  c203              STM      r2!,{r0,r1}
0000fa  e052              B        |L62.418|
                  |L62.252|
;;;632        }
;;;633        else
;;;634        {
;;;635            backoff SET_TO ((_length_unit_type IS CANON_UNITS_MM) ? 0.254 : 0.01);
0000fc  483d              LDR      r0,|L62.500|
0000fe  6800              LDR      r0,[r0,#0]  ; _length_unit_type
000100  2802              CMP      r0,#2
000102  d102              BNE      |L62.266|
000104  493c              LDR      r1,|L62.504|
000106  483d              LDR      r0,|L62.508|
000108  e001              B        |L62.270|
                  |L62.266|
00010a  493d              LDR      r1,|L62.512|
00010c  483d              LDR      r0,|L62.516|
                  |L62.270|
00010e  e9cd100a          STRD     r1,r0,[sp,#0x28]
;;;636            _program_position_x SET_TO (x + (backoff * (dx / distance)));
000112  4652              MOV      r2,r10
000114  465b              MOV      r3,r11
000116  e9dd0110          LDRD     r0,r1,[sp,#0x40]
00011a  f7fffffe          BL       __aeabi_ddiv
00011e  e9cd0106          STRD     r0,r1,[sp,#0x18]
000122  e9dd100a          LDRD     r1,r0,[sp,#0x28]
000126  460a              MOV      r2,r1
000128  4603              MOV      r3,r0
00012a  e9dd0106          LDRD     r0,r1,[sp,#0x18]
00012e  f7fffffe          BL       __aeabi_dmul
000132  4632              MOV      r2,r6
000134  463b              MOV      r3,r7
000136  e9cd0108          STRD     r0,r1,[sp,#0x20]
00013a  f7fffffe          BL       __aeabi_dadd
00013e  4a1a              LDR      r2,|L62.424|
000140  c203              STM      r2!,{r0,r1}
;;;637            _program_position_y SET_TO (y + (backoff * (dy / distance)));
000142  4652              MOV      r2,r10
000144  465b              MOV      r3,r11
000146  e9dd010e          LDRD     r0,r1,[sp,#0x38]
00014a  f7fffffe          BL       __aeabi_ddiv
00014e  e9cd0106          STRD     r0,r1,[sp,#0x18]
000152  e9dd100a          LDRD     r1,r0,[sp,#0x28]
000156  460a              MOV      r2,r1
000158  4603              MOV      r3,r0
00015a  e9dd0106          LDRD     r0,r1,[sp,#0x18]
00015e  f7fffffe          BL       __aeabi_dmul
000162  4622              MOV      r2,r4
000164  462b              MOV      r3,r5
000166  e9cd0108          STRD     r0,r1,[sp,#0x20]
00016a  f7fffffe          BL       __aeabi_dadd
00016e  4a0f              LDR      r2,|L62.428|
000170  c203              STM      r2!,{r0,r1}
;;;638            _program_position_z SET_TO (z + (backoff * (dz / distance)));
000172  4652              MOV      r2,r10
000174  465b              MOV      r3,r11
000176  e9dd010c          LDRD     r0,r1,[sp,#0x30]
00017a  f7fffffe          BL       __aeabi_ddiv
00017e  e9cd0106          STRD     r0,r1,[sp,#0x18]
000182  e9dd100a          LDRD     r1,r0,[sp,#0x28]
000186  460a              MOV      r2,r1
000188  4603              MOV      r3,r0
00018a  e9dd0106          LDRD     r0,r1,[sp,#0x18]
00018e  f7fffffe          BL       __aeabi_dmul
000192  4642              MOV      r2,r8
000194  464b              MOV      r3,r9
000196  e9cd0108          STRD     r0,r1,[sp,#0x20]
00019a  f7fffffe          BL       __aeabi_dadd
00019e  4a04              LDR      r2,|L62.432|
0001a0  c203              STM      r2!,{r0,r1}
                  |L62.418|
;;;639        }
;;;640    #ifdef AA
;;;641        _program_position_a SET_TO a;                 /*AA*/
;;;642    #endif
;;;643    #ifdef BB
;;;644        _program_position_b SET_TO b;                 /*BB*/
;;;645    #endif
;;;646    #ifdef CC
;;;647        _program_position_c SET_TO c;                 /*CC*/
;;;648    #endif
;;;649    }
0001a2  b013              ADD      sp,sp,#0x4c
0001a4  e8bd8ff0          POP      {r4-r11,pc}
;;;650    
                          ENDP

                  |L62.424|
                          DCD      _program_position_x
                  |L62.428|
                          DCD      _program_position_y
                  |L62.432|
                          DCD      _program_position_z
                  |L62.436|
                          DCD      _line_number
                  |L62.440|
0001b8  25356420          DCB      "%5d ",0
0001bc  00      
0001bd  00                DCB      0
0001be  00                DCB      0
0001bf  00                DCB      0
                  |L62.448|
                          DCD      _outfile
                  |L62.452|
0001c4  53545241          DCB      "STRAIGHT_PROBE(%.4f, %.4f, %.4f)\r\n",0
0001c8  49474854
0001cc  5f50524f
0001d0  42452825
0001d4  2e34662c
0001d8  20252e34
0001dc  662c2025
0001e0  2e346629
0001e4  0d0a00  
0001e7  00                DCB      0
                  |L62.488|
                          DCD      _probe_position_x
                  |L62.492|
                          DCD      _probe_position_y
                  |L62.496|
                          DCD      _probe_position_z
                  |L62.500|
                          DCD      _length_unit_type
                  |L62.504|
                          DCD      0x374bc6a8
                  |L62.508|
                          DCD      0x3fd04189
                  |L62.512|
                          DCD      0x47ae147b
                  |L62.516|
                          DCD      0x3f847ae1

                          AREA ||i.STRAIGHT_TRAVERSE||, CODE, READONLY, ALIGN=2

                          REQUIRE _printf_pre_padding
                          REQUIRE _printf_percent
                          REQUIRE _printf_widthprec
                          REQUIRE _printf_d
                          REQUIRE _printf_int_dec
                          REQUIRE _printf_f
                          REQUIRE _printf_fp_dec
                  STRAIGHT_TRAVERSE PROC
;;;326    
;;;327    void STRAIGHT_TRAVERSE(
000000  e92d47ff          PUSH     {r0-r10,lr}
;;;328    double x, double y, double z
;;;329    #ifdef AA
;;;330    , double a                                        /*AA*/
;;;331    #endif
;;;332    #ifdef BB
;;;333    , double b                                        /*BB*/
;;;334    #endif
;;;335    #ifdef CC
;;;336    , double c                                        /*CC*/
;;;337    #endif
;;;338    )
;;;339    {
000004  4606              MOV      r6,r0
000006  460f              MOV      r7,r1
000008  4614              MOV      r4,r2
00000a  461d              MOV      r5,r3
00000c  e9dd890c          LDRD     r8,r9,[sp,#0x30]
;;;340        fprintf(_outfile, "%5d ", _line_number++);
000010  4810              LDR      r0,|L63.84|
000012  6801              LDR      r1,[r0,#0]  ; _line_number
000014  6800              LDR      r0,[r0,#0]  ; _line_number
000016  f1000001          ADD      r0,r0,#1
00001a  4b0e              LDR      r3,|L63.84|
00001c  460a              MOV      r2,r1
00001e  a10e              ADR      r1,|L63.88|
000020  6018              STR      r0,[r3,#0]  ; _line_number
000022  480f              LDR      r0,|L63.96|
000024  6800              LDR      r0,[r0,#0]  ; _outfile
000026  f7fffffe          BL       __2fprintf
;;;341        print_nc_line_number();
00002a  f7fffffe          BL       print_nc_line_number
;;;342        fprintf(_outfile, "STRAIGHT_TRAVERSE(%.4f, %.4f, %.4f"
00002e  4632              MOV      r2,r6
000030  463b              MOV      r3,r7
000032  a10c              ADR      r1,|L63.100|
000034  480a              LDR      r0,|L63.96|
000036  e88d0330          STM      sp,{r4,r5,r8,r9}
00003a  6800              LDR      r0,[r0,#0]  ; _outfile
00003c  f7fffffe          BL       __2fprintf
;;;343        #ifdef AA
;;;344            ", %.4f"                                  /*AA*/
;;;345        #endif
;;;346        #ifdef BB
;;;347            ", %.4f"                                  /*BB*/
;;;348        #endif
;;;349        #ifdef CC
;;;350            ", %.4f"                                  /*CC*/
;;;351        #endif
;;;352            ")\r\n", x, y, z
;;;353        #ifdef AA
;;;354            , a                                       /*AA*/
;;;355        #endif
;;;356        #ifdef BB
;;;357            , b                                       /*BB*/
;;;358        #endif
;;;359        #ifdef CC
;;;360            , c                                       /*CC*/
;;;361        #endif
;;;362            );
;;;363        _program_position_x SET_TO x;
000040  4812              LDR      r0,|L63.140|
000042  c0c0              STM      r0!,{r6,r7}
;;;364        _program_position_y SET_TO y;
000044  4812              LDR      r0,|L63.144|
000046  c030              STM      r0!,{r4,r5}
;;;365        _program_position_z SET_TO z;
000048  4812              LDR      r0,|L63.148|
00004a  e9c08900          STRD     r8,r9,[r0,#0]
;;;366    #ifdef AA
;;;367        _program_position_a SET_TO a;                 /*AA*/
;;;368    #endif
;;;369    #ifdef BB
;;;370        _program_position_b SET_TO b;                 /*BB*/
;;;371    #endif
;;;372    #ifdef CC
;;;373        _program_position_c SET_TO c;                 /*CC*/
;;;374    #endif
;;;375    }
00004e  e8bd87ff          POP      {r0-r10,pc}
;;;376    
                          ENDP

000052  0000              DCW      0x0000
                  |L63.84|
                          DCD      _line_number
                  |L63.88|
000058  25356420          DCB      "%5d ",0
00005c  00      
00005d  00                DCB      0
00005e  00                DCB      0
00005f  00                DCB      0
                  |L63.96|
                          DCD      _outfile
                  |L63.100|
000064  53545241          DCB      "STRAIGHT_TRAVERSE(%.4f, %.4f, %.4f)\r\n",0
000068  49474854
00006c  5f545241
000070  56455253
000074  4528252e
000078  34662c20
00007c  252e3466
000080  2c20252e
000084  3466290d
000088  0a00    
00008a  00                DCB      0
00008b  00                DCB      0
                  |L63.140|
                          DCD      _program_position_x
                  |L63.144|
                          DCD      _program_position_y
                  |L63.148|
                          DCD      _program_position_z

                          AREA ||i.TURN_PROBE_OFF||, CODE, READONLY, ALIGN=2

                          REQUIRE _printf_pre_padding
                          REQUIRE _printf_percent
                          REQUIRE _printf_widthprec
                          REQUIRE _printf_d
                          REQUIRE _printf_int_dec
                  TURN_PROBE_OFF PROC
;;;793    
;;;794    void TURN_PROBE_OFF()
000000  b510              PUSH     {r4,lr}
;;;795    {PRINT0("TURN_PROBE_OFF()\r\n");}
000002  480a              LDR      r0,|L64.44|
000004  6801              LDR      r1,[r0,#0]  ; _line_number
000006  6800              LDR      r0,[r0,#0]  ; _line_number
000008  1c40              ADDS     r0,r0,#1
00000a  4b08              LDR      r3,|L64.44|
00000c  460a              MOV      r2,r1
00000e  a108              ADR      r1,|L64.48|
000010  6018              STR      r0,[r3,#0]  ; _line_number
000012  4809              LDR      r0,|L64.56|
000014  6800              LDR      r0,[r0,#0]  ; _outfile
000016  f7fffffe          BL       __2fprintf
00001a  f7fffffe          BL       print_nc_line_number
00001e  a107              ADR      r1,|L64.60|
000020  4805              LDR      r0,|L64.56|
000022  6800              LDR      r0,[r0,#0]  ; _outfile
000024  f7fffffe          BL       __2fprintf
000028  bd10              POP      {r4,pc}
;;;796    
                          ENDP

00002a  0000              DCW      0x0000
                  |L64.44|
                          DCD      _line_number
                  |L64.48|
000030  25356420          DCB      "%5d ",0
000034  00      
000035  00                DCB      0
000036  00                DCB      0
000037  00                DCB      0
                  |L64.56|
                          DCD      _outfile
                  |L64.60|
00003c  5455524e          DCB      "TURN_PROBE_OFF()\r\n",0
000040  5f50524f
000044  42455f4f
000048  46462829
00004c  0d0a00  
00004f  00                DCB      0

                          AREA ||i.TURN_PROBE_ON||, CODE, READONLY, ALIGN=2

                          REQUIRE _printf_pre_padding
                          REQUIRE _printf_percent
                          REQUIRE _printf_widthprec
                          REQUIRE _printf_d
                          REQUIRE _printf_int_dec
                  TURN_PROBE_ON PROC
;;;796    
;;;797    void TURN_PROBE_ON()
000000  b510              PUSH     {r4,lr}
;;;798    {PRINT0("TURN_PROBE_ON()\r\n");}
000002  480a              LDR      r0,|L65.44|
000004  6801              LDR      r1,[r0,#0]  ; _line_number
000006  6800              LDR      r0,[r0,#0]  ; _line_number
000008  1c40              ADDS     r0,r0,#1
00000a  4b08              LDR      r3,|L65.44|
00000c  460a              MOV      r2,r1
00000e  a108              ADR      r1,|L65.48|
000010  6018              STR      r0,[r3,#0]  ; _line_number
000012  4809              LDR      r0,|L65.56|
000014  6800              LDR      r0,[r0,#0]  ; _outfile
000016  f7fffffe          BL       __2fprintf
00001a  f7fffffe          BL       print_nc_line_number
00001e  a107              ADR      r1,|L65.60|
000020  4805              LDR      r0,|L65.56|
000022  6800              LDR      r0,[r0,#0]  ; _outfile
000024  f7fffffe          BL       __2fprintf
000028  bd10              POP      {r4,pc}
;;;799    
                          ENDP

00002a  0000              DCW      0x0000
                  |L65.44|
                          DCD      _line_number
                  |L65.48|
000030  25356420          DCB      "%5d ",0
000034  00      
000035  00                DCB      0
000036  00                DCB      0
000037  00                DCB      0
                  |L65.56|
                          DCD      _outfile
                  |L65.60|
00003c  5455524e          DCB      "TURN_PROBE_ON()\r\n",0
000040  5f50524f
000044  42455f4f
000048  4e28290d
00004c  0a00    
00004e  00                DCB      0
00004f  00                DCB      0

                          AREA ||i.UNCLAMP_AXIS||, CODE, READONLY, ALIGN=2

                          REQUIRE _printf_pre_padding
                          REQUIRE _printf_percent
                          REQUIRE _printf_widthprec
                          REQUIRE _printf_d
                          REQUIRE _printf_int_dec
                          REQUIRE _printf_s
                          REQUIRE _printf_str
                  UNCLAMP_AXIS PROC
;;;799    
;;;800    void UNCLAMP_AXIS(CANON_AXIS axis)
000000  b510              PUSH     {r4,lr}
;;;801    {
000002  4604              MOV      r4,r0
;;;802        PRINT1("UNCLAMP_AXIS(%s)\r\n",
000004  4817              LDR      r0,|L66.100|
000006  6801              LDR      r1,[r0,#0]  ; _line_number
000008  6800              LDR      r0,[r0,#0]  ; _line_number
00000a  f1000001          ADD      r0,r0,#1
00000e  4b15              LDR      r3,|L66.100|
000010  460a              MOV      r2,r1
000012  a115              ADR      r1,|L66.104|
000014  6018              STR      r0,[r3,#0]  ; _line_number
000016  4816              LDR      r0,|L66.112|
000018  6800              LDR      r0,[r0,#0]  ; _outfile
00001a  f7fffffe          BL       __2fprintf
00001e  f7fffffe          BL       print_nc_line_number
000022  2c01              CMP      r4,#1
000024  d101              BNE      |L66.42|
000026  a013              ADR      r0,|L66.116|
000028  e014              B        |L66.84|
                  |L66.42|
00002a  2c02              CMP      r4,#2
00002c  d101              BNE      |L66.50|
00002e  a015              ADR      r0,|L66.132|
000030  e010              B        |L66.84|
                  |L66.50|
000032  2c03              CMP      r4,#3
000034  d101              BNE      |L66.58|
000036  a017              ADR      r0,|L66.148|
000038  e00c              B        |L66.84|
                  |L66.58|
00003a  2c04              CMP      r4,#4
00003c  d101              BNE      |L66.66|
00003e  a019              ADR      r0,|L66.164|
000040  e008              B        |L66.84|
                  |L66.66|
000042  2c05              CMP      r4,#5
000044  d101              BNE      |L66.74|
000046  a01b              ADR      r0,|L66.180|
000048  e004              B        |L66.84|
                  |L66.74|
00004a  2c06              CMP      r4,#6
00004c  d101              BNE      |L66.82|
00004e  a01d              ADR      r0,|L66.196|
000050  e000              B        |L66.84|
                  |L66.82|
000052  a020              ADR      r0,|L66.212|
                  |L66.84|
000054  4602              MOV      r2,r0
000056  a121              ADR      r1,|L66.220|
000058  4805              LDR      r0,|L66.112|
00005a  6800              LDR      r0,[r0,#0]  ; _outfile
00005c  f7fffffe          BL       __2fprintf
;;;803            (axis IS CANON_AXIS_X) ? "CANON_AXIS_X" :
;;;804        (axis IS CANON_AXIS_Y) ? "CANON_AXIS_Y" :
;;;805        (axis IS CANON_AXIS_Z) ? "CANON_AXIS_Z" :
;;;806        (axis IS CANON_AXIS_A) ? "CANON_AXIS_A" :
;;;807        (axis IS CANON_AXIS_B) ? "CANON_AXIS_B" :
;;;808        (axis IS CANON_AXIS_C) ? "CANON_AXIS_C" : "UNKNOWN");
;;;809    }
000060  bd10              POP      {r4,pc}
;;;810    
                          ENDP

000062  0000              DCW      0x0000
                  |L66.100|
                          DCD      _line_number
                  |L66.104|
000068  25356420          DCB      "%5d ",0
00006c  00      
00006d  00                DCB      0
00006e  00                DCB      0
00006f  00                DCB      0
                  |L66.112|
                          DCD      _outfile
                  |L66.116|
000074  43414e4f          DCB      "CANON_AXIS_X",0
000078  4e5f4158
00007c  49535f58
000080  00      
000081  00                DCB      0
000082  00                DCB      0
000083  00                DCB      0
                  |L66.132|
000084  43414e4f          DCB      "CANON_AXIS_Y",0
000088  4e5f4158
00008c  49535f59
000090  00      
000091  00                DCB      0
000092  00                DCB      0
000093  00                DCB      0
                  |L66.148|
000094  43414e4f          DCB      "CANON_AXIS_Z",0
000098  4e5f4158
00009c  49535f5a
0000a0  00      
0000a1  00                DCB      0
0000a2  00                DCB      0
0000a3  00                DCB      0
                  |L66.164|
0000a4  43414e4f          DCB      "CANON_AXIS_A",0
0000a8  4e5f4158
0000ac  49535f41
0000b0  00      
0000b1  00                DCB      0
0000b2  00                DCB      0
0000b3  00                DCB      0
                  |L66.180|
0000b4  43414e4f          DCB      "CANON_AXIS_B",0
0000b8  4e5f4158
0000bc  49535f42
0000c0  00      
0000c1  00                DCB      0
0000c2  00                DCB      0
0000c3  00                DCB      0
                  |L66.196|
0000c4  43414e4f          DCB      "CANON_AXIS_C",0
0000c8  4e5f4158
0000cc  49535f43
0000d0  00      
0000d1  00                DCB      0
0000d2  00                DCB      0
0000d3  00                DCB      0
                  |L66.212|
0000d4  554e4b4e          DCB      "UNKNOWN",0
0000d8  4f574e00
                  |L66.220|
0000dc  554e434c          DCB      "UNCLAMP_AXIS(%s)\r\n",0
0000e0  414d505f
0000e4  41584953
0000e8  28257329
0000ec  0d0a00  
0000ef  00                DCB      0

                          AREA ||i.USE_LENGTH_UNITS||, CODE, READONLY, ALIGN=2

                          REQUIRE _printf_pre_padding
                          REQUIRE _printf_percent
                          REQUIRE _printf_widthprec
                          REQUIRE _printf_d
                          REQUIRE _printf_int_dec
                  USE_LENGTH_UNITS PROC
;;;281    
;;;282    void USE_LENGTH_UNITS(CANON_UNITS in_unit)
000000  b510              PUSH     {r4,lr}
;;;283    {
000002  4604              MOV      r4,r0
;;;284        if (in_unit IS CANON_UNITS_INCHES)
000004  2c01              CMP      r4,#1
000006  d156              BNE      |L67.182|
;;;285        {
;;;286            PRINT0("USE_LENGTH_UNITS(CANON_UNITS_INCHES)\r\n");
000008  4862              LDR      r0,|L67.404|
00000a  6801              LDR      r1,[r0,#0]  ; _line_number
00000c  6800              LDR      r0,[r0,#0]  ; _line_number
00000e  1c40              ADDS     r0,r0,#1
000010  4b60              LDR      r3,|L67.404|
000012  460a              MOV      r2,r1
000014  a160              ADR      r1,|L67.408|
000016  6018              STR      r0,[r3,#0]  ; _line_number
000018  4861              LDR      r0,|L67.416|
00001a  6800              LDR      r0,[r0,#0]  ; _outfile
00001c  f7fffffe          BL       __2fprintf
000020  f7fffffe          BL       print_nc_line_number
000024  a15f              ADR      r1,|L67.420|
000026  485e              LDR      r0,|L67.416|
000028  6800              LDR      r0,[r0,#0]  ; _outfile
00002a  f7fffffe          BL       __2fprintf
;;;287            if (_length_unit_type IS CANON_UNITS_MM)
00002e  4867              LDR      r0,|L67.460|
000030  6800              LDR      r0,[r0,#0]  ; _length_unit_type
000032  2802              CMP      r0,#2
000034  d13e              BNE      |L67.180|
;;;288            {
;;;289                _length_unit_type SET_TO CANON_UNITS_INCHES;
000036  f04f0001          MOV      r0,#1
00003a  4964              LDR      r1,|L67.460|
00003c  6008              STR      r0,[r1,#0]  ; _length_unit_type
;;;290                _length_unit_factor SET_TO 25.4;
00003e  f04f3166          MOV      r1,#0x66666666
000042  4863              LDR      r0,|L67.464|
000044  4a63              LDR      r2,|L67.468|
000046  e9c21000          STRD     r1,r0,[r2,#0]
;;;291                _program_origin_x SET_TO (_program_origin_x / 25.4);
00004a  460a              MOV      r2,r1
00004c  4603              MOV      r3,r0
00004e  4962              LDR      r1,|L67.472|
000050  c903              LDM      r1,{r0,r1}
000052  f7fffffe          BL       __aeabi_ddiv
000056  4a60              LDR      r2,|L67.472|
000058  c203              STM      r2!,{r0,r1}
;;;292                _program_origin_y SET_TO (_program_origin_y / 25.4);
00005a  f04f3266          MOV      r2,#0x66666666
00005e  4b5c              LDR      r3,|L67.464|
000060  495e              LDR      r1,|L67.476|
000062  c903              LDM      r1,{r0,r1}
000064  f7fffffe          BL       __aeabi_ddiv
000068  4a5c              LDR      r2,|L67.476|
00006a  c203              STM      r2!,{r0,r1}
;;;293                _program_origin_z SET_TO (_program_origin_z / 25.4);
00006c  f04f3266          MOV      r2,#0x66666666
000070  4b57              LDR      r3,|L67.464|
000072  495b              LDR      r1,|L67.480|
000074  c903              LDM      r1,{r0,r1}
000076  f7fffffe          BL       __aeabi_ddiv
00007a  4a59              LDR      r2,|L67.480|
00007c  c203              STM      r2!,{r0,r1}
;;;294                _program_position_x SET_TO (_program_position_x / 25.4);
00007e  f04f3266          MOV      r2,#0x66666666
000082  4b53              LDR      r3,|L67.464|
000084  4957              LDR      r1,|L67.484|
000086  c903              LDM      r1,{r0,r1}
000088  f7fffffe          BL       __aeabi_ddiv
00008c  4a55              LDR      r2,|L67.484|
00008e  c203              STM      r2!,{r0,r1}
;;;295                _program_position_y SET_TO (_program_position_y / 25.4);
000090  f04f3266          MOV      r2,#0x66666666
000094  4b4e              LDR      r3,|L67.464|
000096  4954              LDR      r1,|L67.488|
000098  c903              LDM      r1,{r0,r1}
00009a  f7fffffe          BL       __aeabi_ddiv
00009e  4a52              LDR      r2,|L67.488|
0000a0  c203              STM      r2!,{r0,r1}
;;;296                _program_position_z SET_TO (_program_position_z / 25.4);
0000a2  f04f3266          MOV      r2,#0x66666666
0000a6  4b4a              LDR      r3,|L67.464|
0000a8  4950              LDR      r1,|L67.492|
0000aa  c903              LDM      r1,{r0,r1}
0000ac  f7fffffe          BL       __aeabi_ddiv
0000b0  4a4e              LDR      r2,|L67.492|
0000b2  c203              STM      r2!,{r0,r1}
                  |L67.180|
0000b4  e06c              B        |L67.400|
                  |L67.182|
;;;297            }
;;;298        }
;;;299        else if (in_unit IS CANON_UNITS_MM)
0000b6  2c02              CMP      r4,#2
0000b8  d157              BNE      |L67.362|
;;;300        {
;;;301            PRINT0("USE_LENGTH_UNITS(CANON_UNITS_MM)\r\n");
0000ba  4836              LDR      r0,|L67.404|
0000bc  6801              LDR      r1,[r0,#0]  ; _line_number
0000be  6800              LDR      r0,[r0,#0]  ; _line_number
0000c0  1c40              ADDS     r0,r0,#1
0000c2  4b34              LDR      r3,|L67.404|
0000c4  460a              MOV      r2,r1
0000c6  a134              ADR      r1,|L67.408|
0000c8  6018              STR      r0,[r3,#0]  ; _line_number
0000ca  4835              LDR      r0,|L67.416|
0000cc  6800              LDR      r0,[r0,#0]  ; _outfile
0000ce  f7fffffe          BL       __2fprintf
0000d2  f7fffffe          BL       print_nc_line_number
0000d6  a146              ADR      r1,|L67.496|
0000d8  4831              LDR      r0,|L67.416|
0000da  6800              LDR      r0,[r0,#0]  ; _outfile
0000dc  f7fffffe          BL       __2fprintf
;;;302            if (_length_unit_type IS CANON_UNITS_INCHES)
0000e0  483a              LDR      r0,|L67.460|
0000e2  6800              LDR      r0,[r0,#0]  ; _length_unit_type
0000e4  2801              CMP      r0,#1
0000e6  d153              BNE      |L67.400|
;;;303            {
;;;304                _length_unit_type SET_TO CANON_UNITS_MM;
0000e8  f04f0002          MOV      r0,#2
0000ec  4937              LDR      r1,|L67.460|
0000ee  6008              STR      r0,[r1,#0]  ; _length_unit_type
;;;305                _length_unit_factor SET_TO 1.0;
0000f0  f04f0100          MOV      r1,#0
0000f4  4847              LDR      r0,|L67.532|
0000f6  4a37              LDR      r2,|L67.468|
0000f8  e9c21000          STRD     r1,r0,[r2,#0]
;;;306                _program_origin_x SET_TO (_program_origin_x * 25.4);
0000fc  f04f3266          MOV      r2,#0x66666666
000100  4b33              LDR      r3,|L67.464|
000102  4935              LDR      r1,|L67.472|
000104  c903              LDM      r1,{r0,r1}
000106  f7fffffe          BL       __aeabi_dmul
00010a  4a33              LDR      r2,|L67.472|
00010c  c203              STM      r2!,{r0,r1}
;;;307                _program_origin_y SET_TO (_program_origin_y * 25.4);
00010e  f04f3266          MOV      r2,#0x66666666
000112  4b2f              LDR      r3,|L67.464|
000114  4931              LDR      r1,|L67.476|
000116  c903              LDM      r1,{r0,r1}
000118  f7fffffe          BL       __aeabi_dmul
00011c  4a2f              LDR      r2,|L67.476|
00011e  c203              STM      r2!,{r0,r1}
;;;308                _program_origin_z SET_TO (_program_origin_z * 25.4);
000120  f04f3266          MOV      r2,#0x66666666
000124  4b2a              LDR      r3,|L67.464|
000126  492e              LDR      r1,|L67.480|
000128  c903              LDM      r1,{r0,r1}
00012a  f7fffffe          BL       __aeabi_dmul
00012e  4a2c              LDR      r2,|L67.480|
000130  c203              STM      r2!,{r0,r1}
;;;309                _program_position_x SET_TO (_program_position_x * 25.4);
000132  f04f3266          MOV      r2,#0x66666666
000136  4b26              LDR      r3,|L67.464|
000138  492a              LDR      r1,|L67.484|
00013a  c903              LDM      r1,{r0,r1}
00013c  f7fffffe          BL       __aeabi_dmul
000140  4a28              LDR      r2,|L67.484|
000142  c203              STM      r2!,{r0,r1}
;;;310                _program_position_y SET_TO (_program_position_y * 25.4);
000144  f04f3266          MOV      r2,#0x66666666
000148  4b21              LDR      r3,|L67.464|
00014a  4927              LDR      r1,|L67.488|
00014c  c903              LDM      r1,{r0,r1}
00014e  f7fffffe          BL       __aeabi_dmul
000152  4a25              LDR      r2,|L67.488|
000154  c203              STM      r2!,{r0,r1}
;;;311                _program_position_z SET_TO (_program_position_z * 25.4);
000156  f04f3266          MOV      r2,#0x66666666
00015a  4b1d              LDR      r3,|L67.464|
00015c  4923              LDR      r1,|L67.492|
00015e  c903              LDM      r1,{r0,r1}
000160  f7fffffe          BL       __aeabi_dmul
000164  4a21              LDR      r2,|L67.492|
000166  c203              STM      r2!,{r0,r1}
000168  e012              B        |L67.400|
                  |L67.362|
;;;312            }
;;;313        }
;;;314        else
;;;315            PRINT0("USE_LENGTH_UNITS(UNKNOWN)\r\n");
00016a  480a              LDR      r0,|L67.404|
00016c  6801              LDR      r1,[r0,#0]  ; _line_number
00016e  6800              LDR      r0,[r0,#0]  ; _line_number
000170  1c40              ADDS     r0,r0,#1
000172  4b08              LDR      r3,|L67.404|
000174  460a              MOV      r2,r1
000176  a108              ADR      r1,|L67.408|
000178  6018              STR      r0,[r3,#0]  ; _line_number
00017a  4809              LDR      r0,|L67.416|
00017c  6800              LDR      r0,[r0,#0]  ; _outfile
00017e  f7fffffe          BL       __2fprintf
000182  f7fffffe          BL       print_nc_line_number
000186  a124              ADR      r1,|L67.536|
000188  4805              LDR      r0,|L67.416|
00018a  6800              LDR      r0,[r0,#0]  ; _outfile
00018c  f7fffffe          BL       __2fprintf
                  |L67.400|
;;;316    }
000190  bd10              POP      {r4,pc}
;;;317    
                          ENDP

000192  0000              DCW      0x0000
                  |L67.404|
                          DCD      _line_number
                  |L67.408|
000198  25356420          DCB      "%5d ",0
00019c  00      
00019d  00                DCB      0
00019e  00                DCB      0
00019f  00                DCB      0
                  |L67.416|
                          DCD      _outfile
                  |L67.420|
0001a4  5553455f          DCB      "USE_LENGTH_UNITS(CANON_UNITS_INCHES)\r\n",0
0001a8  4c454e47
0001ac  54485f55
0001b0  4e495453
0001b4  2843414e
0001b8  4f4e5f55
0001bc  4e495453
0001c0  5f494e43
0001c4  48455329
0001c8  0d0a00  
0001cb  00                DCB      0
                  |L67.460|
                          DCD      _length_unit_type
                  |L67.464|
                          DCD      0x40396666
                  |L67.468|
                          DCD      _length_unit_factor
                  |L67.472|
                          DCD      _program_origin_x
                  |L67.476|
                          DCD      _program_origin_y
                  |L67.480|
                          DCD      _program_origin_z
                  |L67.484|
                          DCD      _program_position_x
                  |L67.488|
                          DCD      _program_position_y
                  |L67.492|
                          DCD      _program_position_z
                  |L67.496|
0001f0  5553455f          DCB      "USE_LENGTH_UNITS(CANON_UNITS_MM)\r\n",0
0001f4  4c454e47
0001f8  54485f55
0001fc  4e495453
000200  2843414e
000204  4f4e5f55
000208  4e495453
00020c  5f4d4d29
000210  0d0a00  
000213  00                DCB      0
                  |L67.532|
                          DCD      0x3ff00000
                  |L67.536|
000218  5553455f          DCB      "USE_LENGTH_UNITS(UNKNOWN)\r\n",0
00021c  4c454e47
000220  54485f55
000224  4e495453
000228  28554e4b
00022c  4e4f574e
000230  290d0a00

                          AREA ||i.USE_NO_SPINDLE_FORCE||, CODE, READONLY, ALIGN=2

                          REQUIRE _printf_pre_padding
                          REQUIRE _printf_percent
                          REQUIRE _printf_widthprec
                          REQUIRE _printf_d
                          REQUIRE _printf_int_dec
                  USE_NO_SPINDLE_FORCE PROC
;;;709    
;;;710    void USE_NO_SPINDLE_FORCE()
000000  b510              PUSH     {r4,lr}
;;;711    {PRINT0("USE_NO_SPINDLE_FORCE()\r\n");}
000002  480a              LDR      r0,|L68.44|
000004  6801              LDR      r1,[r0,#0]  ; _line_number
000006  6800              LDR      r0,[r0,#0]  ; _line_number
000008  1c40              ADDS     r0,r0,#1
00000a  4b08              LDR      r3,|L68.44|
00000c  460a              MOV      r2,r1
00000e  a108              ADR      r1,|L68.48|
000010  6018              STR      r0,[r3,#0]  ; _line_number
000012  4809              LDR      r0,|L68.56|
000014  6800              LDR      r0,[r0,#0]  ; _outfile
000016  f7fffffe          BL       __2fprintf
00001a  f7fffffe          BL       print_nc_line_number
00001e  a107              ADR      r1,|L68.60|
000020  4805              LDR      r0,|L68.56|
000022  6800              LDR      r0,[r0,#0]  ; _outfile
000024  f7fffffe          BL       __2fprintf
000028  bd10              POP      {r4,pc}
;;;712    
                          ENDP

00002a  0000              DCW      0x0000
                  |L68.44|
                          DCD      _line_number
                  |L68.48|
000030  25356420          DCB      "%5d ",0
000034  00      
000035  00                DCB      0
000036  00                DCB      0
000037  00                DCB      0
                  |L68.56|
                          DCD      _outfile
                  |L68.60|
00003c  5553455f          DCB      "USE_NO_SPINDLE_FORCE()\r\n",0
000040  4e4f5f53
000044  50494e44
000048  4c455f46
00004c  4f524345
000050  28290d0a
000054  00      
000055  00                DCB      0
000056  00                DCB      0
000057  00                DCB      0

                          AREA ||i.USE_TOOL_LENGTH_OFFSET||, CODE, READONLY, ALIGN=2

                          REQUIRE _printf_pre_padding
                          REQUIRE _printf_percent
                          REQUIRE _printf_widthprec
                          REQUIRE _printf_d
                          REQUIRE _printf_int_dec
                          REQUIRE _printf_f
                          REQUIRE _printf_fp_dec
                  USE_TOOL_LENGTH_OFFSET PROC
;;;714    
;;;715    void USE_TOOL_LENGTH_OFFSET(double length)
000000  b570              PUSH     {r4-r6,lr}
;;;716    {PRINT1("USE_TOOL_LENGTH_OFFSET(%.4f)\r\n", length);}
000002  4604              MOV      r4,r0
000004  460d              MOV      r5,r1
000006  480b              LDR      r0,|L69.52|
000008  6801              LDR      r1,[r0,#0]  ; _line_number
00000a  6800              LDR      r0,[r0,#0]  ; _line_number
00000c  f1000001          ADD      r0,r0,#1
000010  4b08              LDR      r3,|L69.52|
000012  460a              MOV      r2,r1
000014  a108              ADR      r1,|L69.56|
000016  6018              STR      r0,[r3,#0]  ; _line_number
000018  4809              LDR      r0,|L69.64|
00001a  6800              LDR      r0,[r0,#0]  ; _outfile
00001c  f7fffffe          BL       __2fprintf
000020  f7fffffe          BL       print_nc_line_number
000024  4622              MOV      r2,r4
000026  462b              MOV      r3,r5
000028  a106              ADR      r1,|L69.68|
00002a  4805              LDR      r0,|L69.64|
00002c  6800              LDR      r0,[r0,#0]  ; _outfile
00002e  f7fffffe          BL       __2fprintf
000032  bd70              POP      {r4-r6,pc}
;;;717    
                          ENDP

                  |L69.52|
                          DCD      _line_number
                  |L69.56|
000038  25356420          DCB      "%5d ",0
00003c  00      
00003d  00                DCB      0
00003e  00                DCB      0
00003f  00                DCB      0
                  |L69.64|
                          DCD      _outfile
                  |L69.68|
000044  5553455f          DCB      "USE_TOOL_LENGTH_OFFSET(%.4f)\r\n",0
000048  544f4f4c
00004c  5f4c454e
000050  4754485f
000054  4f464653
000058  45542825
00005c  2e346629
000060  0d0a00  
000063  00                DCB      0

                          AREA ||i.print_nc_line_number||, CODE, READONLY, ALIGN=2

                  print_nc_line_number PROC
;;;128    
;;;129    void print_nc_line_number()
000000  b530              PUSH     {r4,r5,lr}
;;;130    {
000002  b0c1              SUB      sp,sp,#0x104
;;;131        char text[256];
;;;132        int k;
;;;133        int m;
;;;134    
;;;135        rs274ngc_line_text(text, 256);
000004  f44f7180          MOV      r1,#0x100
000008  a801              ADD      r0,sp,#4
00000a  f7fffffe          BL       rs274ngc_line_text
;;;136        for (k SET_TO 0;
00000e  f04f0000          MOV      r0,#0
000012  4604              MOV      r4,r0
000014  e002              B        |L70.28|
                  |L70.22|
;;;137            ((k < 256) AND
;;;138            ((text[k] IS '\t') OR (text[k] IS ' ') OR (text[k] IS '/')));
;;;139            k++);
000016  f1040001          ADD      r0,r4,#1
00001a  4604              MOV      r4,r0
                  |L70.28|
00001c  2cff              CMP      r4,#0xff              ;137
00001e  dc0b              BGT      |L70.56|
000020  a801              ADD      r0,sp,#4              ;138
000022  5d00              LDRB     r0,[r0,r4]            ;138
000024  2809              CMP      r0,#9                 ;138
000026  d0f6              BEQ      |L70.22|
000028  a801              ADD      r0,sp,#4              ;138
00002a  5d00              LDRB     r0,[r0,r4]            ;138
00002c  2820              CMP      r0,#0x20              ;138
00002e  d0f2              BEQ      |L70.22|
000030  a801              ADD      r0,sp,#4              ;138
000032  5d00              LDRB     r0,[r0,r4]            ;138
000034  282f              CMP      r0,#0x2f              ;138
000036  d0ee              BEQ      |L70.22|
                  |L70.56|
;;;140        if ((k < 256) AND ((text[k] IS 'n') OR (text[k] IS 'N')))
000038  2cff              CMP      r4,#0xff
00003a  dc35              BGT      |L70.168|
00003c  a801              ADD      r0,sp,#4
00003e  5d00              LDRB     r0,[r0,r4]
000040  286e              CMP      r0,#0x6e
000042  d003              BEQ      |L70.76|
000044  a801              ADD      r0,sp,#4
000046  5d00              LDRB     r0,[r0,r4]
000048  284e              CMP      r0,#0x4e
00004a  d12d              BNE      |L70.168|
                  |L70.76|
;;;141        {
;;;142            fputc('N', _outfile);
00004c  481b              LDR      r0,|L70.188|
00004e  6801              LDR      r1,[r0,#0]  ; _outfile
000050  204e              MOVS     r0,#0x4e
000052  f7fffffe          BL       fputc
;;;143            for (k++, m SET_TO 0;
000056  f1040001          ADD      r0,r4,#1
00005a  4604              MOV      r4,r0
00005c  f04f0500          MOV      r5,#0
000060  e00c              B        |L70.124|
                  |L70.98|
;;;144                ((k < 256) AND (text[k] >= '0') AND (text[k] <= '9'));
;;;145                k++, m++)
;;;146            fputc(text[k], _outfile);
000062  a901              ADD      r1,sp,#4
000064  5d09              LDRB     r1,[r1,r4]
000066  4608              MOV      r0,r1
000068  4914              LDR      r1,|L70.188|
00006a  6809              LDR      r1,[r1,#0]  ; _outfile
00006c  f7fffffe          BL       fputc
000070  f1040001          ADD      r0,r4,#1              ;145
000074  4604              MOV      r4,r0                 ;145
000076  f1050001          ADD      r0,r5,#1              ;145
00007a  4605              MOV      r5,r0                 ;145
                  |L70.124|
00007c  2cff              CMP      r4,#0xff              ;144
00007e  dc07              BGT      |L70.144|
000080  a801              ADD      r0,sp,#4              ;144
000082  5d00              LDRB     r0,[r0,r4]            ;144
000084  2830              CMP      r0,#0x30              ;144
000086  db03              BLT      |L70.144|
000088  a801              ADD      r0,sp,#4              ;144
00008a  5d00              LDRB     r0,[r0,r4]            ;144
00008c  2839              CMP      r0,#0x39              ;144
00008e  dde8              BLE      |L70.98|
                  |L70.144|
;;;147            for (; m < 6; m++)
000090  e007              B        |L70.162|
                  |L70.146|
;;;148                fputc(' ', _outfile);
000092  480a              LDR      r0,|L70.188|
000094  6801              LDR      r1,[r0,#0]  ; _outfile
000096  2020              MOVS     r0,#0x20
000098  f7fffffe          BL       fputc
00009c  f1050001          ADD      r0,r5,#1              ;147
0000a0  4605              MOV      r5,r0                 ;147
                  |L70.162|
0000a2  2d06              CMP      r5,#6                 ;147
0000a4  dbf5              BLT      |L70.146|
0000a6  e006              B        |L70.182|
                  |L70.168|
;;;149        }
;;;150        else if (k < 256)
0000a8  2cff              CMP      r4,#0xff
0000aa  dc04              BGT      |L70.182|
;;;151            fprintf(_outfile, "N..... ");
0000ac  a104              ADR      r1,|L70.192|
0000ae  4803              LDR      r0,|L70.188|
0000b0  6800              LDR      r0,[r0,#0]  ; _outfile
0000b2  f7fffffe          BL       __2fprintf
                  |L70.182|
;;;152    }
0000b6  b041              ADD      sp,sp,#0x104
0000b8  bd30              POP      {r4,r5,pc}
;;;153    
                          ENDP

0000ba  0000              DCW      0x0000
                  |L70.188|
                          DCD      _outfile
                  |L70.192|
0000c0  4e2e2e2e          DCB      "N..... ",0
0000c4  2e2e2000

                          AREA ||.bss||, DATA, NOINIT, ALIGN=3

                  _parameter_file_name
                          %        104
                  _tools
                          %        3072

                          AREA ||.data||, DATA, ALIGN=3

                  _active_plane
                          DCD      0x00000001
                  _active_slot
                          DCD      0x00000001
                  _feed_rate
000008  00000000          DCFD     0x0000000000000000 ; 0
00000c  00000000
                  _flood
                          DCD      0x00000000
                          DCD      0x00000000
                  _length_unit_factor
000018  00000000          DCFD     0x3ff0000000000000 ; 1
00001c  3ff00000
                  _length_unit_type
                          DCD      0x00000002
                  _line_number
                          DCD      0x00000001
                  _mist
                          DCD      0x00000000
                  _motion_mode
                          DCD      0x00000003
                  _probe_position_x
000030  00000000          DCFD     0x0000000000000000 ; 0
000034  00000000
                  _probe_position_y
000038  00000000          DCFD     0x0000000000000000 ; 0
00003c  00000000
                  _probe_position_z
000040  00000000          DCFD     0x0000000000000000 ; 0
000044  00000000
                  _program_origin_x
000048  00000000          DCFD     0x0000000000000000 ; 0
00004c  00000000
                  _program_origin_y
000050  00000000          DCFD     0x0000000000000000 ; 0
000054  00000000
                  _program_origin_z
000058  00000000          DCFD     0x0000000000000000 ; 0
00005c  00000000
                  _program_position_x
000060  00000000          DCFD     0x0000000000000000 ; 0
000064  00000000
                  _program_position_y
000068  00000000          DCFD     0x0000000000000000 ; 0
00006c  00000000
                  _program_position_z
000070  00000000          DCFD     0x0000000000000000 ; 0
000074  00000000
                  _tool_max
                          DCD      0x00000044
                          DCD      0x00000000
                  _spindle_speed
                          %        8
                  _spindle_turning
                          DCD      0x00000000
                          DCD      0x00000000
                  _traverse_rate
                          %        8
